ccopy_reg
_reconstructor
p0
(cmatplotlib.axes
_PicklableSubplotClassConstructor
p1
c__builtin__
object
p2
Ntp3
Rp4
(cmatplotlib.axes
Axes
p5
tp6
Rp7
(dp8
S'transLimits'
p9
g0
(cmatplotlib.transforms
BboxTransformFrom
p10
g2
Ntp11
Rp12
(dp13
S'_invalid'
p14
I2
sS'_boxin'
p15
g0
(cmatplotlib.transforms
TransformedBbox
p16
g2
Ntp17
Rp18
(dp19
g14
I2
sS'_bbox'
p20
g0
(cmatplotlib.transforms
Bbox
p21
g2
Ntp22
Rp23
(dp24
g14
I0
sS'_minpos'
p25
cnumpy.core.multiarray
_reconstruct
p26
(cnumpy
ndarray
p27
(I0
tp28
S'b'
p29
tp30
Rp31
(I1
(I2
tp32
cnumpy
dtype
p33
(S'f8'
p34
I0
I1
tp35
Rp36
(I3
S'<'
p37
NNNI-1
I-1
I0
tp38
bI00
S'H\xaf\xbc\x9a\xf2\xd7z>H\xaf\xbc\x9a\xf2\xd7z>'
p39
tp40
bsS'_parents'
p41
(dp42
I100389200
g18
ssS'_points_orig'
p43
g26
(g27
(I0
tp44
g29
tp45
Rp46
(I1
(I2
I2
tp47
g36
I00
S'\x00\x00\x00\x00\x00\x00\x00\x00\x00\x00\x00\x00\x00\x00\x00\x00\x00\x00\x00\x00\x00\x00\xf0?\x00\x00\x00\x00\x00\x00\xf0?'
p48
tp49
bsS'_points'
p50
g26
(g27
(I0
tp51
g29
tp52
Rp53
(I1
(I2
I2
tp54
g36
I00
S'\x00\x00\x00\x00\x00\x00\x00\x00\x11\x9d\x12\x93\xc2\xb5:\xc0\x00\x00\x00\x00\x00\x00 @\xc4\xdf\xae\xad\x19[!\xc0'
p55
tp56
bsS'_ignore'
p57
I01
sS'_shorthand_name'
p58
S''
p59
sbsS'_transform'
p60
g0
(cmatplotlib.transforms
TransformWrapper
p61
g2
Ntp62
Rp63
(dp64
S'child'
p65
g0
(cmatplotlib.transforms
BlendedAffine2D
p66
g2
Ntp67
Rp68
(dp69
g14
I0
sS'_mtx'
p70
g26
(g27
(I0
tp71
g29
tp72
Rp73
(I1
(I3
I3
tp74
g36
I00
S'\x00\x00\x00\x00\x00\x00\xf0?\x00\x00\x00\x00\x00\x00\x00\x00\x00\x00\x00\x00\x00\x00\x00\x00\x00\x00\x00\x00\x00\x00\x00\x00\x00\x00\x00\x00\x00\x00\xf0?\x00\x00\x00\x00\x00\x00\x00\x00\x00\x00\x00\x00\x00\x00\x00\x00\x00\x00\x00\x00\x00\x00\x00\x00\x00\x00\x00\x00\x00\x00\xf0?'
p75
tp76
bsS'_y'
p77
g0
(cmatplotlib.transforms
IdentityTransform
p78
g2
Ntp79
Rp80
(dp81
g14
I1
sS'_inverted'
p82
Nsg58
g59
sg41
(dp83
I43798800
g68
ssbsS'_x'
p84
g0
(g78
g2
Ntp85
Rp86
(dp87
g14
I1
sg82
Nsg58
g59
sg41
(dp88
I43798800
g68
ssbsg82
Nsg58
g59
sg41
(dp89
I100819024
g63
ssbsbsg50
Nsg41
(dp90
I100821008
g12
ssg58
g59
sbsg70
Nsg82
Nsg58
g59
sg41
(dp91
I100822544
g0
(cmatplotlib.transforms
CompositeGenericTransform
p92
g2
Ntp93
Rp94
(dp95
g14
I2
sS'input_dims'
p96
I2
sS'_a'
p97
g12
sS'output_dims'
p98
I2
sS'_b'
p99
g0
(cmatplotlib.transforms
BboxTransformTo
p100
g2
Ntp101
Rp102
(dp103
g14
I1
sg70
Nsg82
NsS'_boxout'
p104
g0
(g16
g2
Ntp105
Rp106
(dp107
g14
I1
sg20
g0
(g21
g2
Ntp108
Rp109
(dp110
g14
I0
sg25
g26
(g27
(I0
tp111
g29
tp112
Rp113
(I1
(I2
tp114
g36
I00
S'H\xaf\xbc\x9a\xf2\xd7z>H\xaf\xbc\x9a\xf2\xd7z>'
p115
tp116
bsg41
(dp117
I100833040
g106
ssg43
g26
(g27
(I0
tp118
g29
tp119
Rp120
(I1
(I2
I2
tp121
g36
I00
S'\x00\x00\x00\x00\x00\x00\xc0?\x98\x99\x99\x99\x99\x99\xb9?\xcd\xcc\xcc\xcc\xcc\xcc\xec?\xcd\xcc\xcc\xcc\xcc\xcc\xec?'
p122
tp123
bsg50
g26
(g27
(I0
tp124
g29
tp125
Rp126
(I1
(I2
I2
tp127
g36
I00
S'\x00\x00\x00\x00\x00\x00\xc0?\x98\x99\x99\x99\x99\x99\xb9?\xcd\xcc\xcc\xcc\xcc\xcc\xec?\xcd\xcc\xcc\xcc\xcc\xcc\xec?'
p128
tp129
bsg57
I01
sg58
g59
sbsg60
g0
(g100
g2
Ntp130
Rp131
(dp132
g14
I1
sg70
Nsg82
Nsg104
g0
(g16
g2
Ntp133
Rp134
(dp135
g14
I0
sg20
g0
(g21
g2
Ntp136
Rp137
(dp138
g14
I0
sg25
g26
(g27
(I0
tp139
g29
tp140
Rp141
(I1
(I2
tp142
g36
I00
S'H\xaf\xbc\x9a\xf2\xd7z>H\xaf\xbc\x9a\xf2\xd7z>'
p143
tp144
bsg41
(dp145
I100341264
g134
ssg43
g26
(g27
(I0
tp146
g29
tp147
Rp148
(I1
(I2
I2
tp149
g36
I00
S'\x00\x00\x00\x00\x00\x00\x00\x00\x00\x00\x00\x00\x00\x00\x00\x00\x00\x00\x00\x00\x00\x00&@\x00\x00\x00\x00\x00\x00\x18@'
p150
tp151
bsg50
g26
(g27
(I0
tp152
g29
tp153
Rp154
(I1
(I2
I2
tp155
g36
I00
S'\x00\x00\x00\x00\x00\x00\x00\x00\x00\x00\x00\x00\x00\x00\x00\x00\x00\x00\x00\x00\x00\x00&@\x00\x00\x00\x00\x00\x00\x18@'
p156
tp157
bsg57
I01
sg58
g59
sbsg60
g0
(cmatplotlib.transforms
Affine2D
p158
g2
Ntp159
Rp160
(dp161
g14
I0
sg82
Nsg70
g26
(g27
(I0
tp162
g29
tp163
Rp164
(I1
(I3
I3
tp165
g36
I00
S'\x00\x00\x00\x00\x00\x00T@\x00\x00\x00\x00\x00\x00\x00\x00\x00\x00\x00\x00\x00\x00\x00\x00\x00\x00\x00\x00\x00\x00\x00\x00\x00\x00\x00\x00\x00\x00T@\x00\x00\x00\x00\x00\x00\x00\x00\x00\x00\x00\x00\x00\x00\x00\x00\x00\x00\x00\x00\x00\x00\x00\x00\x00\x00\x00\x00\x00\x00\xf0?'
p166
tp167
bsg58
g59
sg41
(dp168
I111839056
g0
(cmatplotlib.transforms
ScaledTranslation
p169
g2
Ntp170
Rp171
(dp172
g14
I1
sg70
NsS'_scale_trans'
p173
g160
sg82
NsS'_t'
p174
(I0
F-0.05555555555555555
tp175
sg58
g59
sg41
(dp176
I100883856
g0
(g92
g2
Ntp177
Rp178
(dp179
g14
I2
sg96
I2
sg97
g0
(cmatplotlib.transforms
BlendedGenericTransform
p180
g2
Ntp181
Rp182
(dp183
g14
I2
sg77
g102
sg84
g0
(g92
g2
Ntp184
Rp185
(dp186
g14
I2
sg96
I2
sg97
g63
sg98
I2
sg99
g94
sg41
(dp187
I100819792
g182
sI150794000
g0
(g180
g2
Ntp188
Rp189
(dp190
g14
I2
sg77
g185
sg84
g0
(g180
g2
Ntp191
Rp192
(dp193
g14
I2
sg77
g185
sg84
g102
sS'_affine'
p194
Nsg41
(dp195
I100670480
g0
(g92
g2
Ntp196
Rp197
(dp198
g14
I2
sg96
I2
sg97
g192
sg98
I2
sg99
g0
(g169
g2
Ntp199
Rp200
(dp201
g14
I1
sg70
Nsg173
g160
sg82
Nsg174
(F-0.05555555555555555
I0
tp202
sg58
g59
sg41
(dp203
I100670480
g197
ssbsg41
(dp204
sg58
g59
sbsI111833616
g0
(g180
g2
Ntp205
Rp206
(dp207
g14
I2
sg77
g185
sg84
g192
sg194
Nsg41
(dp208
sg58
g59
sbsI111633616
g0
(g92
g2
Ntp209
Rp210
(dp211
g14
I2
sg96
I2
sg97
g192
sg98
I2
sg99
g0
(g169
g2
Ntp212
Rp213
(dp214
g14
I1
sg70
Nsg173
g160
sg82
Nsg174
(F-0.05555555555555555
I0
tp215
sg58
g59
sg41
(dp216
I111633616
g210
ssbsg41
(dp217
sg58
g59
sbsI111704592
g0
(g92
g2
Ntp218
Rp219
(dp220
g14
I2
sg96
I2
sg97
g192
sg98
I2
sg99
g0
(g169
g2
Ntp221
Rp222
(dp223
g14
I1
sg70
Nsg173
g160
sg82
Nsg174
(F-0.05555555555555555
I0
tp224
sg58
g59
sg41
(dp225
I111704592
g219
ssbsg41
(dp226
sg58
g59
sbsI111702928
g0
(g92
g2
Ntp227
Rp228
(dp229
g14
I2
sg96
I2
sg97
g192
sg98
I2
sg99
g0
(g169
g2
Ntp230
Rp231
(dp232
g14
I1
sg70
Nsg173
g160
sg82
Nsg174
(F0.05555555555555555
I0
tp233
sg58
g59
sg41
(dp234
I111702928
g228
ssbsg41
(dp235
sg58
g59
sbsI111633808
g0
(g92
g2
Ntp236
Rp237
(dp238
g14
I2
sg96
I2
sg97
g192
sg98
I2
sg99
g0
(g169
g2
Ntp239
Rp240
(dp241
g14
I1
sg70
Nsg173
g160
sg82
Nsg174
(F0.05555555555555555
I0
tp242
sg58
g59
sg41
(dp243
I111633808
g237
ssbsg41
(dp244
sg58
g59
sbsI100668944
g0
(g92
g2
Ntp245
Rp246
(dp247
g14
I2
sg96
I2
sg97
g192
sg98
I2
sg99
g0
(g169
g2
Ntp248
Rp249
(dp250
g14
I1
sg70
Nsg173
g160
sg82
Nsg174
(F0.05555555555555555
I0
tp251
sg58
g59
sg41
(dp252
I100668944
g246
ssbsg41
(dp253
sg58
g59
sbsI150794000
g189
ssg58
g59
sbsg194
Nsg41
(dp254
sg58
g59
sbsI111830736
g192
sI150710736
g0
(g180
g2
Ntp255
Rp256
(dp257
g14
I2
sg77
g182
sg84
g185
sg194
Nsg41
(dp258
sg58
g59
sbsI111833616
g206
sI139738583766800
g0
(g180
g2
Ntp259
Rp260
(dp261
g14
I2
sg77
g182
sg84
g185
sg194
Nsg41
(dp262
sg58
g59
sbssg58
g59
sbsg194
Nsg41
(dp263
I101351248
g0
(g92
g2
Ntp264
Rp265
(dp266
g14
I2
sg96
I2
sg97
g182
sg98
I2
sg99
g0
(g169
g2
Ntp267
Rp268
(dp269
g14
I1
sg70
Nsg173
g160
sg82
Nsg174
(I0
F0.05555555555555555
tp270
sg58
g59
sg41
(dp271
I101351248
g265
ssbsg41
(dp272
sg58
g59
sbsI139738583766800
g260
sI100882384
g0
(g92
g2
Ntp273
Rp274
(dp275
g14
I2
sg96
I2
sg97
g182
sg98
I2
sg99
g0
(g169
g2
Ntp276
Rp277
(dp278
g14
I1
sg70
Nsg173
g160
sg82
Nsg174
(I0
F0.05555555555555555
tp279
sg58
g59
sg41
(dp280
I100882384
g274
ssbsg41
(dp281
sg58
g59
sbsI150752272
g0
(g92
g2
Ntp282
Rp283
(dp284
g14
I2
sg96
I2
sg97
g182
sg98
I2
sg99
g0
(g169
g2
Ntp285
Rp286
(dp287
g14
I1
sg70
Nsg173
g160
sg82
Nsg174
(I0
F0.05555555555555555
tp288
sg58
g59
sg41
(dp289
I150752272
g283
ssbsg41
(dp290
sg58
g59
sbsI99858576
g0
(g92
g2
Ntp291
Rp292
(dp293
g14
I2
sg96
I2
sg97
g182
sg98
I2
sg99
g0
(g169
g2
Ntp294
Rp295
(dp296
g14
I1
sg70
Nsg173
g160
sg82
Nsg174
(I0
F-0.05555555555555555
tp297
sg58
g59
sg41
(dp298
I99858576
g292
ssbsg41
(dp299
sg58
g59
sbsI150766480
g0
(g92
g2
Ntp300
Rp301
(dp302
g14
I2
sg96
I2
sg97
g182
sg98
I2
sg99
g0
(g169
g2
Ntp303
Rp304
(dp305
g14
I1
sg70
Nsg173
g160
sg82
Nsg174
(I0
F-0.05555555555555555
tp306
sg58
g59
sg41
(dp307
I150766480
g301
ssbsg41
(dp308
sg58
g59
sbsI100883856
g178
sI150710736
g256
ssg58
g59
sbsg98
I2
sg99
g171
sg41
(dp309
sg58
g59
sbssbsI111635344
g240
sI99860368
g295
sI111702992
g222
sI100669072
g200
sI100667664
g249
sI111794384
g0
(g169
g2
Ntp310
Rp311
(dp312
g14
I1
sg70
Nsg173
g160
sg82
Nsg174
(F0.0
F0.06944444444444445
tp313
sg58
g59
sg41
(dp314
I111793552
g0
(g92
g2
Ntp315
Rp316
(dp317
g14
I1
sg96
I2
sg97
g102
sg98
I2
sg99
g311
sg41
(dp318
sg58
g59
sbsI111794640
g0
(g92
g2
Ntp319
Rp320
(dp321
g14
I1
sg96
I2
sg97
g102
sg98
I2
sg99
g311
sg41
(dp322
sg58
g59
sbsI111795536
g0
(g92
g2
Ntp323
Rp324
(dp325
g14
I1
sg96
I2
sg97
g102
sg98
I2
sg99
g311
sg41
(dp326
sg58
g59
sbssbsI150766864
g286
sI100882960
g277
sI100341264
g134
sI99978768
g213
sI111702480
g231
sI150767248
g304
sI100884176
g268
ssbsg50
g26
(g27
(I0
tp327
g29
tp328
Rp329
(I1
(I2
I2
tp330
g36
I00
S'\x00\x00\x00\x00\x00\x00\x00\x00\x00\x00\x00\x00\x00\x00\x00\x00\x00\x00\x00\x00\x00\x80\x8b@\x00\x00\x00\x00\x00\x00~@'
p331
tp332
bsg41
(dp333
I100343376
g131
ssg58
g59
sbsg41
(dp334
I100833040
g106
ssg58
g59
sbsg50
Nsg41
(dp335
I100819408
g102
ssg58
g59
sbsg41
(dp336
I100819792
g182
sI111795536
g324
sI100912528
g0
(g92
g2
Ntp337
Rp338
(dp339
g14
I1
sg96
I2
sg97
g0
(g92
g2
Ntp340
Rp341
(dp342
g14
I1
sg96
I2
sg97
g0
(g100
g2
Ntp343
Rp344
(dp345
g14
I1
sg70
Nsg82
Nsg104
g0
(g21
g2
Ntp346
Rp347
(dp348
g14
I1
sg25
g26
(g27
(I0
tp349
g29
tp350
Rp351
(I1
(I2
tp352
g36
I00
S'H\xaf\xbc\x9a\xf2\xd7z>H\xaf\xbc\x9a\xf2\xd7z>'
p353
tp354
bsg41
(dp355
I100910864
g344
ssg43
g26
(g27
(I0
tp356
g29
tp357
Rp358
(I1
(I2
I2
tp359
g36
I00
S'\x00\x00\x00\x00\x00\x00\x00\x00\x00\x00\x00\x00\x00\x00\x00\x00\x00\x00\x00\x00\x00\x00\xf0?\x00\x00\x00\x00\x00\x00\xf0?'
p360
tp361
bsg50
g26
(g27
(I0
tp362
g29
tp363
Rp364
(I1
(I2
I2
tp365
g36
I00
S'\x00\x00\x00\x00\x00\x00\x00\x00\x00\x00\x00\x00\x00\x00\x00\x00\x00\x00\x00\x00\x00\x00\xf0?\x00\x00\x00\x00\x00\x00\xf0?'
p366
tp367
bsg57
I01
sg58
g59
sbsg41
(dp368
I100909200
g341
ssg58
g59
sbsg98
I2
sg99
g0
(g158
g2
Ntp369
Rp370
(dp371
g14
I2
sg82
Nsg70
g26
(g27
(I0
tp372
g29
tp373
Rp374
(I1
(I3
I3
tp375
g36
I00
S'\x00\x00\x00\x00\x00\x00\xf0?\x00\x00\x00\x00\x00\x00\x00\x00\x00\x00\x00\x00\x00\x00\x00\x00\x00\x00\x00\x00\x00\x00\x00\x00\x00\x00\x00\x00\x00\x00\xf0?\x00\x00\x00\x00\x00\x00\x00\x00\x00\x00\x00\x00\x00\x00\x00\x00\x00\x00\x00\x00\x00\x00\x00\x00\x00\x00\x00\x00\x00\x00\xf0?'
p376
tp377
bsg58
g59
sg41
(dp378
I100909200
g341
ssbsg41
(dp379
I100912528
g338
ssg58
g59
sbsg98
I2
sg99
g102
sg41
(dp380
I100909456
g0
(g16
g2
Ntp381
Rp382
(dp383
g14
I1
sg20
g0
(g21
g2
Ntp384
Rp385
(dp386
g14
I1
sg25
g26
(g27
(I0
tp387
g29
tp388
Rp389
(I1
(I2
tp390
g36
I00
S'H\xaf\xbc\x9a\xf2\xd7z>H\xaf\xbc\x9a\xf2\xd7z>'
p391
tp392
bsg41
(dp393
I100909456
g382
ssg43
g26
(g27
(I0
tp394
g29
tp395
Rp396
(I1
(I2
I2
tp397
g36
I00
S'\x00\x00\x00\x00\x00\x00\x00\x00\x00\x00\x00\x00\x00\x00\x00\x00\x00\x00\x00\x00\x00\x00\xf0?\x00\x00\x00\x00\x00\x00\xf0?'
p398
tp399
bsg50
g26
(g27
(I0
tp400
g29
tp401
Rp402
(I1
(I2
I2
tp403
g36
I00
S'\x00\x00\x00\x00\x00\x00\x00\x00\x00\x00\x00\x00\x00\x00\x00\x00\x00\x00\x00\x00\x00\x00\xf0?\x00\x00\x00\x00\x00\x00\xf0?'
p404
tp405
bsg57
I01
sg58
g59
sbsg60
g338
sg50
Nsg41
(dp406
sg58
g59
sbssg58
g59
sbsI150754576
g0
(g92
g2
Ntp407
Rp408
(dp409
g14
I1
sg96
I2
sg97
g0
(g92
g2
Ntp410
Rp411
(dp412
g14
I1
sg96
I2
sg97
g0
(g100
g2
Ntp413
Rp414
(dp415
g14
I1
sg70
Nsg82
Nsg104
g0
(g21
g2
Ntp416
Rp417
(dp418
g14
I1
sg25
g26
(g27
(I0
tp419
g29
tp420
Rp421
(I1
(I2
tp422
g36
I00
S'H\xaf\xbc\x9a\xf2\xd7z>H\xaf\xbc\x9a\xf2\xd7z>'
p423
tp424
bsg41
(dp425
I150757328
g414
ssg43
g26
(g27
(I0
tp426
g29
tp427
Rp428
(I1
(I2
I2
tp429
g36
I00
S'\x00\x00\x00\x00\x00\x00\x00\x00\x00\x00\x00\x00\x00\x00\x00\x00\x00\x00\x00\x00\x00\x00\xf0?\x00\x00\x00\x00\x00\x00\xf0?'
p430
tp431
bsg50
g26
(g27
(I0
tp432
g29
tp433
Rp434
(I1
(I2
I2
tp435
g36
I00
S'\x00\x00\x00\x00\x00\x00\x00\x00\x00\x00\x00\x00\x00\x00\x00\x00\x00\x00\x00\x00\x00\x00\xf0?\x00\x00\x00\x00\x00\x00\xf0?'
p436
tp437
bsg57
I01
sg58
g59
sbsg41
(dp438
I150757200
g411
ssg58
g59
sbsg98
I2
sg99
g0
(g158
g2
Ntp439
Rp440
(dp441
g14
I2
sg82
Nsg70
g26
(g27
(I0
tp442
g29
tp443
Rp444
(I1
(I3
I3
tp445
g36
I00
S'\x00\x00\x00\x00\x00\x00\xf0?\x00\x00\x00\x00\x00\x00\x00\x00\x00\x00\x00\x00\x00\x00\x00\x00\x00\x00\x00\x00\x00\x00\x00\x00\x00\x00\x00\x00\x00\x00\xf0?\x00\x00\x00\x00\x00\x00\x00\x00\x00\x00\x00\x00\x00\x00\x00\x00\x00\x00\x00\x00\x00\x00\x00\x00\x00\x00\x00\x00\x00\x00\xf0?'
p446
tp447
bsg58
g59
sg41
(dp448
I150757200
g411
ssbsg41
(dp449
I150754576
g408
ssg58
g59
sbsg98
I2
sg99
g102
sg41
(dp450
I150756752
g0
(g16
g2
Ntp451
Rp452
(dp453
g14
I1
sg20
g0
(g21
g2
Ntp454
Rp455
(dp456
g14
I1
sg25
g26
(g27
(I0
tp457
g29
tp458
Rp459
(I1
(I2
tp460
g36
I00
S'H\xaf\xbc\x9a\xf2\xd7z>H\xaf\xbc\x9a\xf2\xd7z>'
p461
tp462
bsg41
(dp463
I150756752
g452
ssg43
g26
(g27
(I0
tp464
g29
tp465
Rp466
(I1
(I2
I2
tp467
g36
I00
S'\x00\x00\x00\x00\x00\x00\x00\x00\x00\x00\x00\x00\x00\x00\x00\x00\x00\x00\x00\x00\x00\x00\xf0?\x00\x00\x00\x00\x00\x00\xf0?'
p468
tp469
bsg50
g26
(g27
(I0
tp470
g29
tp471
Rp472
(I1
(I2
I2
tp473
g36
I00
S'\x00\x00\x00\x00\x00\x00\x00\x00\x00\x00\x00\x00\x00\x00\x00\x00\x00\x00\x00\x00\x00\x00\xf0?\x00\x00\x00\x00\x00\x00\xf0?'
p474
tp475
bsg57
I01
sg58
g59
sbsg60
g408
sg50
Nsg41
(dp476
sg58
g59
sbssg58
g59
sbsI150754704
g0
(g92
g2
Ntp477
Rp478
(dp479
g14
I1
sg96
I2
sg97
g0
(g92
g2
Ntp480
Rp481
(dp482
g14
I1
sg96
I2
sg97
g0
(g100
g2
Ntp483
Rp484
(dp485
g14
I1
sg70
Nsg82
Nsg104
g0
(g21
g2
Ntp486
Rp487
(dp488
g14
I1
sg25
g26
(g27
(I0
tp489
g29
tp490
Rp491
(I1
(I2
tp492
g36
I00
S'H\xaf\xbc\x9a\xf2\xd7z>H\xaf\xbc\x9a\xf2\xd7z>'
p493
tp494
bsg41
(dp495
I150753808
g484
ssg43
g26
(g27
(I0
tp496
g29
tp497
Rp498
(I1
(I2
I2
tp499
g36
I00
S'\x00\x00\x00\x00\x00\x00\x00\x00\x00\x00\x00\x00\x00\x00\x00\x00\x00\x00\x00\x00\x00\x00\xf0?\x00\x00\x00\x00\x00\x00\xf0?'
p500
tp501
bsg50
g26
(g27
(I0
tp502
g29
tp503
Rp504
(I1
(I2
I2
tp505
g36
I00
S'\x00\x00\x00\x00\x00\x00\x00\x00\x00\x00\x00\x00\x00\x00\x00\x00\x00\x00\x00\x00\x00\x00\xf0?\x00\x00\x00\x00\x00\x00\xf0?'
p506
tp507
bsg57
I01
sg58
g59
sbsg41
(dp508
I150754384
g481
ssg58
g59
sbsg98
I2
sg99
g0
(g158
g2
Ntp509
Rp510
(dp511
g14
I2
sg82
Nsg70
g26
(g27
(I0
tp512
g29
tp513
Rp514
(I1
(I3
I3
tp515
g36
I00
S'\x00\x00\x00\x00\x00\x00\xf0?\x00\x00\x00\x00\x00\x00\x00\x00\x00\x00\x00\x00\x00\x00\x00\x00\x00\x00\x00\x00\x00\x00\x00\x00\x00\x00\x00\x00\x00\x00\xf0?\x00\x00\x00\x00\x00\x00\x00\x00\x00\x00\x00\x00\x00\x00\x00\x00\x00\x00\x00\x00\x00\x00\x00\x00\x00\x00\x00\x00\x00\x00\xf0?'
p516
tp517
bsg58
g59
sg41
(dp518
I150754384
g481
ssbsg41
(dp519
I150754704
g478
ssg58
g59
sbsg98
I2
sg99
g102
sg41
(dp520
I150755664
g0
(g16
g2
Ntp521
Rp522
(dp523
g14
I1
sg20
g0
(g21
g2
Ntp524
Rp525
(dp526
g14
I1
sg25
g26
(g27
(I0
tp527
g29
tp528
Rp529
(I1
(I2
tp530
g36
I00
S'H\xaf\xbc\x9a\xf2\xd7z>H\xaf\xbc\x9a\xf2\xd7z>'
p531
tp532
bsg41
(dp533
I150755664
g522
ssg43
g26
(g27
(I0
tp534
g29
tp535
Rp536
(I1
(I2
I2
tp537
g36
I00
S'\x00\x00\x00\x00\x00\x00\x00\x00\x00\x00\x00\x00\x00\x00\x00\x00\x00\x00\x00\x00\x00\x00\xf0?\x00\x00\x00\x00\x00\x00\xf0?'
p538
tp539
bsg50
g26
(g27
(I0
tp540
g29
tp541
Rp542
(I1
(I2
I2
tp543
g36
I00
S'\x00\x00\x00\x00\x00\x00\x00\x00\x00\x00\x00\x00\x00\x00\x00\x00\x00\x00\x00\x00\x00\x00\xf0?\x00\x00\x00\x00\x00\x00\xf0?'
p544
tp545
bsg57
I01
sg58
g59
sbsg60
g478
sg50
Nsg41
(dp546
sg58
g59
sbssg58
g59
sbsI99800656
g0
(g92
g2
Ntp547
Rp548
(dp549
g14
I1
sg96
I2
sg97
g0
(g92
g2
Ntp550
Rp551
(dp552
g14
I1
sg96
I2
sg97
g0
(g100
g2
Ntp553
Rp554
(dp555
g14
I1
sg70
Nsg82
Nsg104
g0
(g21
g2
Ntp556
Rp557
(dp558
g14
I1
sg25
g26
(g27
(I0
tp559
g29
tp560
Rp561
(I1
(I2
tp562
g36
I00
S'H\xaf\xbc\x9a\xf2\xd7z>H\xaf\xbc\x9a\xf2\xd7z>'
p563
tp564
bsg41
(dp565
I99799632
g554
ssg43
g26
(g27
(I0
tp566
g29
tp567
Rp568
(I1
(I2
I2
tp569
g36
I00
S'\x00\x00\x00\x00\x00\x00\x00\x00\x00\x00\x00\x00\x00\x00\x00\x00\x00\x00\x00\x00\x00\x00\xf0?\x00\x00\x00\x00\x00\x00\xf0?'
p570
tp571
bsg50
g26
(g27
(I0
tp572
g29
tp573
Rp574
(I1
(I2
I2
tp575
g36
I00
S'\x00\x00\x00\x00\x00\x00\x00\x00\x00\x00\x00\x00\x00\x00\x00\x00\x00\x00\x00\x00\x00\x00\xf0?\x00\x00\x00\x00\x00\x00\xf0?'
p576
tp577
bsg57
I01
sg58
g59
sbsg41
(dp578
I99802832
g551
ssg58
g59
sbsg98
I2
sg99
g0
(g158
g2
Ntp579
Rp580
(dp581
g14
I2
sg82
Nsg70
g26
(g27
(I0
tp582
g29
tp583
Rp584
(I1
(I3
I3
tp585
g36
I00
S'\x00\x00\x00\x00\x00\x00\xf0?\x00\x00\x00\x00\x00\x00\x00\x00\x00\x00\x00\x00\x00\x00\x00\x00\x00\x00\x00\x00\x00\x00\x00\x00\x00\x00\x00\x00\x00\x00\xf0?\x00\x00\x00\x00\x00\x00\x00\x00\x00\x00\x00\x00\x00\x00\x00\x00\x00\x00\x00\x00\x00\x00\x00\x00\x00\x00\x00\x00\x00\x00\xf0?'
p586
tp587
bsg58
g59
sg41
(dp588
I99802832
g551
ssbsg41
(dp589
I99800656
g548
ssg58
g59
sbsg98
I2
sg99
g102
sg41
(dp590
I99799888
g0
(g16
g2
Ntp591
Rp592
(dp593
g14
I1
sg20
g0
(g21
g2
Ntp594
Rp595
(dp596
g14
I1
sg25
g26
(g27
(I0
tp597
g29
tp598
Rp599
(I1
(I2
tp600
g36
I00
S'H\xaf\xbc\x9a\xf2\xd7z>H\xaf\xbc\x9a\xf2\xd7z>'
p601
tp602
bsg41
(dp603
I99799888
g592
ssg43
g26
(g27
(I0
tp604
g29
tp605
Rp606
(I1
(I2
I2
tp607
g36
I00
S'\x00\x00\x00\x00\x00\x00\x00\x00\x00\x00\x00\x00\x00\x00\x00\x00\x00\x00\x00\x00\x00\x00\xf0?\x00\x00\x00\x00\x00\x00\xf0?'
p608
tp609
bsg50
g26
(g27
(I0
tp610
g29
tp611
Rp612
(I1
(I2
I2
tp613
g36
I00
S'\x00\x00\x00\x00\x00\x00\x00\x00\x00\x00\x00\x00\x00\x00\x00\x00\x00\x00\x00\x00\x00\x00\xf0?\x00\x00\x00\x00\x00\x00\xf0?'
p614
tp615
bsg57
I01
sg58
g59
sbsg60
g548
sg50
Nsg41
(dp616
sg58
g59
sbssg58
g59
sbsI111830736
g192
sI99891152
g0
(g92
g2
Ntp617
Rp618
(dp619
g14
I1
sg96
I2
sg97
g0
(g92
g2
Ntp620
Rp621
(dp622
g14
I1
sg96
I2
sg97
g0
(g100
g2
Ntp623
Rp624
(dp625
g14
I1
sg70
Nsg82
Nsg104
g0
(g21
g2
Ntp626
Rp627
(dp628
g14
I1
sg25
g26
(g27
(I0
tp629
g29
tp630
Rp631
(I1
(I2
tp632
g36
I00
S'H\xaf\xbc\x9a\xf2\xd7z>H\xaf\xbc\x9a\xf2\xd7z>'
p633
tp634
bsg41
(dp635
I99891472
g624
ssg43
g26
(g27
(I0
tp636
g29
tp637
Rp638
(I1
(I2
I2
tp639
g36
I00
S'\x00\x00\x00\x00\x00\x00\x00\x00\x00\x00\x00\x00\x00\x00\x00\x00\x00\x00\x00\x00\x00\x00\xf0?\x00\x00\x00\x00\x00\x00\xf0?'
p640
tp641
bsg50
g26
(g27
(I0
tp642
g29
tp643
Rp644
(I1
(I2
I2
tp645
g36
I00
S'\x00\x00\x00\x00\x00\x00\x00\x00\x00\x00\x00\x00\x00\x00\x00\x00\x00\x00\x00\x00\x00\x00\xf0?\x00\x00\x00\x00\x00\x00\xf0?'
p646
tp647
bsg57
I01
sg58
g59
sbsg41
(dp648
I99889488
g621
ssg58
g59
sbsg98
I2
sg99
g0
(g158
g2
Ntp649
Rp650
(dp651
g14
I2
sg82
Nsg70
g26
(g27
(I0
tp652
g29
tp653
Rp654
(I1
(I3
I3
tp655
g36
I00
S'\x00\x00\x00\x00\x00\x00\xf0?\x00\x00\x00\x00\x00\x00\x00\x00\x00\x00\x00\x00\x00\x00\x00\x00\x00\x00\x00\x00\x00\x00\x00\x00\x00\x00\x00\x00\x00\x00\xf0?\x00\x00\x00\x00\x00\x00\x00\x00\x00\x00\x00\x00\x00\x00\x00\x00\x00\x00\x00\x00\x00\x00\x00\x00\x00\x00\x00\x00\x00\x00\xf0?'
p656
tp657
bsg58
g59
sg41
(dp658
I99889488
g621
ssbsg41
(dp659
I99891152
g618
ssg58
g59
sbsg98
I2
sg99
g102
sg41
(dp660
I99893072
g0
(g16
g2
Ntp661
Rp662
(dp663
g14
I1
sg20
g0
(g21
g2
Ntp664
Rp665
(dp666
g14
I1
sg25
g26
(g27
(I0
tp667
g29
tp668
Rp669
(I1
(I2
tp670
g36
I00
S'H\xaf\xbc\x9a\xf2\xd7z>H\xaf\xbc\x9a\xf2\xd7z>'
p671
tp672
bsg41
(dp673
I99893072
g662
ssg43
g26
(g27
(I0
tp674
g29
tp675
Rp676
(I1
(I2
I2
tp677
g36
I00
S'\x00\x00\x00\x00\x00\x00\x00\x00\x00\x00\x00\x00\x00\x00\x00\x00\x00\x00\x00\x00\x00\x00\xf0?\x00\x00\x00\x00\x00\x00\xf0?'
p678
tp679
bsg50
g26
(g27
(I0
tp680
g29
tp681
Rp682
(I1
(I2
I2
tp683
g36
I00
S'\x00\x00\x00\x00\x00\x00\x00\x00\x00\x00\x00\x00\x00\x00\x00\x00\x00\x00\x00\x00\x00\x00\xf0?\x00\x00\x00\x00\x00\x00\xf0?'
p684
tp685
bsg57
I01
sg58
g59
sbsg60
g618
sg50
Nsg41
(dp686
sg58
g59
sbssg58
g59
sbsI150620176
g0
(g92
g2
Ntp687
Rp688
(dp689
g14
I1
sg96
I2
sg97
g0
(g92
g2
Ntp690
Rp691
(dp692
g14
I1
sg96
I2
sg97
g0
(g100
g2
Ntp693
Rp694
(dp695
g14
I1
sg70
Nsg82
Nsg104
g0
(g21
g2
Ntp696
Rp697
(dp698
g14
I1
sg25
g26
(g27
(I0
tp699
g29
tp700
Rp701
(I1
(I2
tp702
g36
I00
S'H\xaf\xbc\x9a\xf2\xd7z>H\xaf\xbc\x9a\xf2\xd7z>'
p703
tp704
bsg41
(dp705
I150619920
g694
ssg43
g26
(g27
(I0
tp706
g29
tp707
Rp708
(I1
(I2
I2
tp709
g36
I00
S'\x00\x00\x00\x00\x00\x00\x00\x00\x00\x00\x00\x00\x00\x00\x00\x00\x00\x00\x00\x00\x00\x00\xf0?\x00\x00\x00\x00\x00\x00\xf0?'
p710
tp711
bsg50
g26
(g27
(I0
tp712
g29
tp713
Rp714
(I1
(I2
I2
tp715
g36
I00
S'\x00\x00\x00\x00\x00\x00\x00\x00\x00\x00\x00\x00\x00\x00\x00\x00\x00\x00\x00\x00\x00\x00\xf0?\x00\x00\x00\x00\x00\x00\xf0?'
p716
tp717
bsg57
I01
sg58
g59
sbsg41
(dp718
I150620432
g691
ssg58
g59
sbsg98
I2
sg99
g0
(g158
g2
Ntp719
Rp720
(dp721
g14
I2
sg82
Nsg70
g26
(g27
(I0
tp722
g29
tp723
Rp724
(I1
(I3
I3
tp725
g36
I00
S'\x00\x00\x00\x00\x00\x00\xf0?\x00\x00\x00\x00\x00\x00\x00\x00\x00\x00\x00\x00\x00\x00\x00\x00\x00\x00\x00\x00\x00\x00\x00\x00\x00\x00\x00\x00\x00\x00\xf0?\x00\x00\x00\x00\x00\x00\x00\x00\x00\x00\x00\x00\x00\x00\x00\x00\x00\x00\x00\x00\x00\x00\x00\x00\x00\x00\x00\x00\x00\x00\xf0?'
p726
tp727
bsg58
g59
sg41
(dp728
I150620432
g691
ssbsg41
(dp729
I150620176
g688
ssg58
g59
sbsg98
I2
sg99
g102
sg41
(dp730
I150621008
g0
(g16
g2
Ntp731
Rp732
(dp733
g14
I1
sg20
g0
(g21
g2
Ntp734
Rp735
(dp736
g14
I1
sg25
g26
(g27
(I0
tp737
g29
tp738
Rp739
(I1
(I2
tp740
g36
I00
S'H\xaf\xbc\x9a\xf2\xd7z>H\xaf\xbc\x9a\xf2\xd7z>'
p741
tp742
bsg41
(dp743
I150621008
g732
ssg43
g26
(g27
(I0
tp744
g29
tp745
Rp746
(I1
(I2
I2
tp747
g36
I00
S'\x00\x00\x00\x00\x00\x00\x00\x00\x00\x00\x00\x00\x00\x00\x00\x00\x00\x00\x00\x00\x00\x00\xf0?\x00\x00\x00\x00\x00\x00\xf0?'
p748
tp749
bsg50
g26
(g27
(I0
tp750
g29
tp751
Rp752
(I1
(I2
I2
tp753
g36
I00
S'\x00\x00\x00\x00\x00\x00\x00\x00\x00\x00\x00\x00\x00\x00\x00\x00\x00\x00\x00\x00\x00\x00\xf0?\x00\x00\x00\x00\x00\x00\xf0?'
p754
tp755
bsg57
I01
sg58
g59
sbsg60
g688
sg50
Nsg41
(dp756
sg58
g59
sbssg58
g59
sbsI150620304
g0
(g92
g2
Ntp757
Rp758
(dp759
g14
I1
sg96
I2
sg97
g0
(g92
g2
Ntp760
Rp761
(dp762
g14
I1
sg96
I2
sg97
g0
(g100
g2
Ntp763
Rp764
(dp765
g14
I1
sg70
Nsg82
Nsg104
g0
(g21
g2
Ntp766
Rp767
(dp768
g14
I1
sg25
g26
(g27
(I0
tp769
g29
tp770
Rp771
(I1
(I2
tp772
g36
I00
S'H\xaf\xbc\x9a\xf2\xd7z>H\xaf\xbc\x9a\xf2\xd7z>'
p773
tp774
bsg41
(dp775
I150620368
g764
ssg43
g26
(g27
(I0
tp776
g29
tp777
Rp778
(I1
(I2
I2
tp779
g36
I00
S'\x00\x00\x00\x00\x00\x00\x00\x00\x00\x00\x00\x00\x00\x00\x00\x00\x00\x00\x00\x00\x00\x00\xf0?\x00\x00\x00\x00\x00\x00\xf0?'
p780
tp781
bsg50
g26
(g27
(I0
tp782
g29
tp783
Rp784
(I1
(I2
I2
tp785
g36
I00
S'\x00\x00\x00\x00\x00\x00\x00\x00\x00\x00\x00\x00\x00\x00\x00\x00\x00\x00\x00\x00\x00\x00\xf0?\x00\x00\x00\x00\x00\x00\xf0?'
p786
tp787
bsg57
I01
sg58
g59
sbsg41
(dp788
I150618384
g761
ssg58
g59
sbsg98
I2
sg99
g0
(g158
g2
Ntp789
Rp790
(dp791
g14
I2
sg82
Nsg70
g26
(g27
(I0
tp792
g29
tp793
Rp794
(I1
(I3
I3
tp795
g36
I00
S'\x00\x00\x00\x00\x00\x00\xf0?\x00\x00\x00\x00\x00\x00\x00\x00\x00\x00\x00\x00\x00\x00\x00\x00\x00\x00\x00\x00\x00\x00\x00\x00\x00\x00\x00\x00\x00\x00\xf0?\x00\x00\x00\x00\x00\x00\x00\x00\x00\x00\x00\x00\x00\x00\x00\x00\x00\x00\x00\x00\x00\x00\x00\x00\x00\x00\x00\x00\x00\x00\xf0?'
p796
tp797
bsg58
g59
sg41
(dp798
I150618384
g761
ssbsg41
(dp799
I150620304
g758
ssg58
g59
sbsg98
I2
sg99
g102
sg41
(dp800
I150620816
g0
(g16
g2
Ntp801
Rp802
(dp803
g14
I1
sg20
g0
(g21
g2
Ntp804
Rp805
(dp806
g14
I1
sg25
g26
(g27
(I0
tp807
g29
tp808
Rp809
(I1
(I2
tp810
g36
I00
S'H\xaf\xbc\x9a\xf2\xd7z>H\xaf\xbc\x9a\xf2\xd7z>'
p811
tp812
bsg41
(dp813
I150620816
g802
ssg43
g26
(g27
(I0
tp814
g29
tp815
Rp816
(I1
(I2
I2
tp817
g36
I00
S'\x00\x00\x00\x00\x00\x00\x00\x00\x00\x00\x00\x00\x00\x00\x00\x00\x00\x00\x00\x00\x00\x00\xf0?\x00\x00\x00\x00\x00\x00\xf0?'
p818
tp819
bsg50
g26
(g27
(I0
tp820
g29
tp821
Rp822
(I1
(I2
I2
tp823
g36
I00
S'\x00\x00\x00\x00\x00\x00\x00\x00\x00\x00\x00\x00\x00\x00\x00\x00\x00\x00\x00\x00\x00\x00\xf0?\x00\x00\x00\x00\x00\x00\xf0?'
p824
tp825
bsg57
I01
sg58
g59
sbsg60
g758
sg50
Nsg41
(dp826
sg58
g59
sbssg58
g59
sbsI101312784
g0
(g66
g2
Ntp827
Rp828
(dp829
g14
I1
sg70
Nsg77
g102
sg84
g0
(g78
g2
Ntp830
Rp831
(dp832
g14
I1
sg82
Nsg58
g59
sg41
(dp833
I101312784
g828
ssbsg82
Nsg58
g59
sg41
(dp834
sbsI111794640
g320
sI150747792
g0
(g92
g2
Ntp835
Rp836
(dp837
g14
I1
sg96
I2
sg97
g0
(g92
g2
Ntp838
Rp839
(dp840
g14
I1
sg96
I2
sg97
g0
(g100
g2
Ntp841
Rp842
(dp843
g14
I1
sg70
Nsg82
Nsg104
g0
(g21
g2
Ntp844
Rp845
(dp846
g14
I1
sg25
g26
(g27
(I0
tp847
g29
tp848
Rp849
(I1
(I2
tp850
g36
I00
S'H\xaf\xbc\x9a\xf2\xd7z>H\xaf\xbc\x9a\xf2\xd7z>'
p851
tp852
bsg41
(dp853
I136412560
g842
ssg43
g26
(g27
(I0
tp854
g29
tp855
Rp856
(I1
(I2
I2
tp857
g36
I00
S'\x00\x00\x00\x00\x00\x00\x00\x00\x00\x00\x00\x00\x00\x00\x00\x00\x00\x00\x00\x00\x00\x00\xf0?\x00\x00\x00\x00\x00\x00\xf0?'
p858
tp859
bsg50
g26
(g27
(I0
tp860
g29
tp861
Rp862
(I1
(I2
I2
tp863
g36
I00
S'\x00\x00\x00\x00\x00\x00\x00\x00\x00\x00\x00\x00\x00\x00\x00\x00\x00\x00\x00\x00\x00\x00\xf0?\x00\x00\x00\x00\x00\x00\xf0?'
p864
tp865
bsg57
I01
sg58
g59
sbsg41
(dp866
I136412496
g839
ssg58
g59
sbsg98
I2
sg99
g0
(g158
g2
Ntp867
Rp868
(dp869
g14
I2
sg82
Nsg70
g26
(g27
(I0
tp870
g29
tp871
Rp872
(I1
(I3
I3
tp873
g36
I00
S'\x00\x00\x00\x00\x00\x00\xf0?\x00\x00\x00\x00\x00\x00\x00\x00\x00\x00\x00\x00\x00\x00\x00\x00\x00\x00\x00\x00\x00\x00\x00\x00\x00\x00\x00\x00\x00\x00\xf0?\x00\x00\x00\x00\x00\x00\x00\x00\x00\x00\x00\x00\x00\x00\x00\x00\x00\x00\x00\x00\x00\x00\x00\x00\x00\x00\x00\x00\x00\x00\xf0?'
p874
tp875
bsg58
g59
sg41
(dp876
I136412496
g839
ssbsg41
(dp877
I150747792
g836
ssg58
g59
sbsg98
I2
sg99
g102
sg41
(dp878
I150746640
g0
(g16
g2
Ntp879
Rp880
(dp881
g14
I1
sg20
g0
(g21
g2
Ntp882
Rp883
(dp884
g14
I1
sg25
g26
(g27
(I0
tp885
g29
tp886
Rp887
(I1
(I2
tp888
g36
I00
S'H\xaf\xbc\x9a\xf2\xd7z>H\xaf\xbc\x9a\xf2\xd7z>'
p889
tp890
bsg41
(dp891
I150746640
g880
ssg43
g26
(g27
(I0
tp892
g29
tp893
Rp894
(I1
(I2
I2
tp895
g36
I00
S'\x00\x00\x00\x00\x00\x00\x00\x00\x00\x00\x00\x00\x00\x00\x00\x00\x00\x00\x00\x00\x00\x00\xf0?\x00\x00\x00\x00\x00\x00\xf0?'
p896
tp897
bsg50
g26
(g27
(I0
tp898
g29
tp899
Rp900
(I1
(I2
I2
tp901
g36
I00
S'\x00\x00\x00\x00\x00\x00\x00\x00\x00\x00\x00\x00\x00\x00\x00\x00\x00\x00\x00\x00\x00\x00\xf0?\x00\x00\x00\x00\x00\x00\xf0?'
p902
tp903
bsg57
I01
sg58
g59
sbsg60
g836
sg50
Nsg41
(dp904
sg58
g59
sbssg58
g59
sbsI150747856
g0
(g92
g2
Ntp905
Rp906
(dp907
g14
I1
sg96
I2
sg97
g0
(g92
g2
Ntp908
Rp909
(dp910
g14
I1
sg96
I2
sg97
g0
(g100
g2
Ntp911
Rp912
(dp913
g14
I1
sg70
Nsg82
Nsg104
g0
(g21
g2
Ntp914
Rp915
(dp916
g14
I1
sg25
g26
(g27
(I0
tp917
g29
tp918
Rp919
(I1
(I2
tp920
g36
I00
S'H\xaf\xbc\x9a\xf2\xd7z>H\xaf\xbc\x9a\xf2\xd7z>'
p921
tp922
bsg41
(dp923
I150748432
g912
ssg43
g26
(g27
(I0
tp924
g29
tp925
Rp926
(I1
(I2
I2
tp927
g36
I00
S'\x00\x00\x00\x00\x00\x00\x00\x00\x00\x00\x00\x00\x00\x00\x00\x00\x00\x00\x00\x00\x00\x00\xf0?\x00\x00\x00\x00\x00\x00\xf0?'
p928
tp929
bsg50
g26
(g27
(I0
tp930
g29
tp931
Rp932
(I1
(I2
I2
tp933
g36
I00
S'\x00\x00\x00\x00\x00\x00\x00\x00\x00\x00\x00\x00\x00\x00\x00\x00\x00\x00\x00\x00\x00\x00\xf0?\x00\x00\x00\x00\x00\x00\xf0?'
p934
tp935
bsg57
I01
sg58
g59
sbsg41
(dp936
I150748176
g909
ssg58
g59
sbsg98
I2
sg99
g0
(g158
g2
Ntp937
Rp938
(dp939
g14
I2
sg82
Nsg70
g26
(g27
(I0
tp940
g29
tp941
Rp942
(I1
(I3
I3
tp943
g36
I00
S'\x00\x00\x00\x00\x00\x00\xf0?\x00\x00\x00\x00\x00\x00\x00\x00\x00\x00\x00\x00\x00\x00\x00\x00\x00\x00\x00\x00\x00\x00\x00\x00\x00\x00\x00\x00\x00\x00\xf0?\x00\x00\x00\x00\x00\x00\x00\x00\x00\x00\x00\x00\x00\x00\x00\x00\x00\x00\x00\x00\x00\x00\x00\x00\x00\x00\x00\x00\x00\x00\xf0?'
p944
tp945
bsg58
g59
sg41
(dp946
I150748176
g909
ssbsg41
(dp947
I150747856
g906
ssg58
g59
sbsg98
I2
sg99
g102
sg41
(dp948
I150747344
g0
(g16
g2
Ntp949
Rp950
(dp951
g14
I1
sg20
g0
(g21
g2
Ntp952
Rp953
(dp954
g14
I1
sg25
g26
(g27
(I0
tp955
g29
tp956
Rp957
(I1
(I2
tp958
g36
I00
S'H\xaf\xbc\x9a\xf2\xd7z>H\xaf\xbc\x9a\xf2\xd7z>'
p959
tp960
bsg41
(dp961
I150747344
g950
ssg43
g26
(g27
(I0
tp962
g29
tp963
Rp964
(I1
(I2
I2
tp965
g36
I00
S'\x00\x00\x00\x00\x00\x00\x00\x00\x00\x00\x00\x00\x00\x00\x00\x00\x00\x00\x00\x00\x00\x00\xf0?\x00\x00\x00\x00\x00\x00\xf0?'
p966
tp967
bsg50
g26
(g27
(I0
tp968
g29
tp969
Rp970
(I1
(I2
I2
tp971
g36
I00
S'\x00\x00\x00\x00\x00\x00\x00\x00\x00\x00\x00\x00\x00\x00\x00\x00\x00\x00\x00\x00\x00\x00\xf0?\x00\x00\x00\x00\x00\x00\xf0?'
p972
tp973
bsg57
I01
sg58
g59
sbsg60
g906
sg50
Nsg41
(dp974
sg58
g59
sbssg58
g59
sbsI99801808
g0
(g92
g2
Ntp975
Rp976
(dp977
g14
I1
sg96
I2
sg97
g0
(g92
g2
Ntp978
Rp979
(dp980
g14
I1
sg96
I2
sg97
g0
(g100
g2
Ntp981
Rp982
(dp983
g14
I1
sg70
Nsg82
Nsg104
g0
(g21
g2
Ntp984
Rp985
(dp986
g14
I1
sg25
g26
(g27
(I0
tp987
g29
tp988
Rp989
(I1
(I2
tp990
g36
I00
S'H\xaf\xbc\x9a\xf2\xd7z>H\xaf\xbc\x9a\xf2\xd7z>'
p991
tp992
bsg41
(dp993
I99801488
g982
ssg43
g26
(g27
(I0
tp994
g29
tp995
Rp996
(I1
(I2
I2
tp997
g36
I00
S'\x00\x00\x00\x00\x00\x00\x00\x00\x00\x00\x00\x00\x00\x00\x00\x00\x00\x00\x00\x00\x00\x00\xf0?\x00\x00\x00\x00\x00\x00\xf0?'
p998
tp999
bsg50
g26
(g27
(I0
tp1000
g29
tp1001
Rp1002
(I1
(I2
I2
tp1003
g36
I00
S'\x00\x00\x00\x00\x00\x00\x00\x00\x00\x00\x00\x00\x00\x00\x00\x00\x00\x00\x00\x00\x00\x00\xf0?\x00\x00\x00\x00\x00\x00\xf0?'
p1004
tp1005
bsg57
I01
sg58
g59
sbsg41
(dp1006
I111793680
g979
ssg58
g59
sbsg98
I2
sg99
g0
(g158
g2
Ntp1007
Rp1008
(dp1009
g14
I2
sg82
Nsg70
g26
(g27
(I0
tp1010
g29
tp1011
Rp1012
(I1
(I3
I3
tp1013
g36
I00
S'\x00\x00\x00\x00\x00\x00\xf0?\x00\x00\x00\x00\x00\x00\x00\x00\x00\x00\x00\x00\x00\x00\x00\x00\x00\x00\x00\x00\x00\x00\x00\x00\x00\x00\x00\x00\x00\x00\xf0?\x00\x00\x00\x00\x00\x00\x00\x00\x00\x00\x00\x00\x00\x00\x00\x00\x00\x00\x00\x00\x00\x00\x00\x00\x00\x00\x00\x00\x00\x00\xf0?'
p1014
tp1015
bsg58
g59
sg41
(dp1016
I111793680
g979
ssbsg41
(dp1017
I99801808
g976
ssg58
g59
sbsg98
I2
sg99
g102
sg41
(dp1018
I99799504
g0
(g16
g2
Ntp1019
Rp1020
(dp1021
g14
I1
sg20
g0
(g21
g2
Ntp1022
Rp1023
(dp1024
g14
I1
sg25
g26
(g27
(I0
tp1025
g29
tp1026
Rp1027
(I1
(I2
tp1028
g36
I00
S'H\xaf\xbc\x9a\xf2\xd7z>H\xaf\xbc\x9a\xf2\xd7z>'
p1029
tp1030
bsg41
(dp1031
I99799504
g1020
ssg43
g26
(g27
(I0
tp1032
g29
tp1033
Rp1034
(I1
(I2
I2
tp1035
g36
I00
S'\x00\x00\x00\x00\x00\x00\x00\x00\x00\x00\x00\x00\x00\x00\x00\x00\x00\x00\x00\x00\x00\x00\xf0?\x00\x00\x00\x00\x00\x00\xf0?'
p1036
tp1037
bsg50
g26
(g27
(I0
tp1038
g29
tp1039
Rp1040
(I1
(I2
I2
tp1041
g36
I00
S'\x00\x00\x00\x00\x00\x00\x00\x00\x00\x00\x00\x00\x00\x00\x00\x00\x00\x00\x00\x00\x00\x00\xf0?\x00\x00\x00\x00\x00\x00\xf0?'
p1042
tp1043
bsg57
I01
sg58
g59
sbsg60
g976
sg50
Nsg41
(dp1044
sg58
g59
sbssg58
g59
sbsI111688464
g0
(g92
g2
Ntp1045
Rp1046
(dp1047
g14
I1
sg96
I2
sg97
g0
(g92
g2
Ntp1048
Rp1049
(dp1050
g14
I1
sg96
I2
sg97
g0
(g100
g2
Ntp1051
Rp1052
(dp1053
g14
I1
sg70
Nsg82
Nsg104
g0
(g21
g2
Ntp1054
Rp1055
(dp1056
g14
I1
sg25
g26
(g27
(I0
tp1057
g29
tp1058
Rp1059
(I1
(I2
tp1060
g36
I00
S'H\xaf\xbc\x9a\xf2\xd7z>H\xaf\xbc\x9a\xf2\xd7z>'
p1061
tp1062
bsg41
(dp1063
I111688784
g1052
ssg43
g26
(g27
(I0
tp1064
g29
tp1065
Rp1066
(I1
(I2
I2
tp1067
g36
I00
S'\x00\x00\x00\x00\x00\x00\x00\x00\x00\x00\x00\x00\x00\x00\x00\x00\x00\x00\x00\x00\x00\x00\xf0?\x00\x00\x00\x00\x00\x00\xf0?'
p1068
tp1069
bsg50
g26
(g27
(I0
tp1070
g29
tp1071
Rp1072
(I1
(I2
I2
tp1073
g36
I00
S'\x00\x00\x00\x00\x00\x00\x00\x00\x00\x00\x00\x00\x00\x00\x00\x00\x00\x00\x00\x00\x00\x00\xf0?\x00\x00\x00\x00\x00\x00\xf0?'
p1074
tp1075
bsg57
I01
sg58
g59
sbsg41
(dp1076
I111685776
g1049
ssg58
g59
sbsg98
I2
sg99
g0
(g158
g2
Ntp1077
Rp1078
(dp1079
g14
I2
sg82
Nsg70
g26
(g27
(I0
tp1080
g29
tp1081
Rp1082
(I1
(I3
I3
tp1083
g36
I00
S'\x00\x00\x00\x00\x00\x00\xf0?\x00\x00\x00\x00\x00\x00\x00\x00\x00\x00\x00\x00\x00\x00\x00\x00\x00\x00\x00\x00\x00\x00\x00\x00\x00\x00\x00\x00\x00\x00\xf0?\x00\x00\x00\x00\x00\x00\x00\x00\x00\x00\x00\x00\x00\x00\x00\x00\x00\x00\x00\x00\x00\x00\x00\x00\x00\x00\x00\x00\x00\x00\xf0?'
p1084
tp1085
bsg58
g59
sg41
(dp1086
I111685776
g1049
ssbsg41
(dp1087
I111688464
g1046
ssg58
g59
sbsg98
I2
sg99
g102
sg41
(dp1088
I111689232
g0
(g16
g2
Ntp1089
Rp1090
(dp1091
g14
I1
sg20
g0
(g21
g2
Ntp1092
Rp1093
(dp1094
g14
I1
sg25
g26
(g27
(I0
tp1095
g29
tp1096
Rp1097
(I1
(I2
tp1098
g36
I00
S'H\xaf\xbc\x9a\xf2\xd7z>H\xaf\xbc\x9a\xf2\xd7z>'
p1099
tp1100
bsg41
(dp1101
I111689232
g1090
ssg43
g26
(g27
(I0
tp1102
g29
tp1103
Rp1104
(I1
(I2
I2
tp1105
g36
I00
S'\x00\x00\x00\x00\x00\x00\x00\x00\x00\x00\x00\x00\x00\x00\x00\x00\x00\x00\x00\x00\x00\x00\xf0?\x00\x00\x00\x00\x00\x00\xf0?'
p1106
tp1107
bsg50
g26
(g27
(I0
tp1108
g29
tp1109
Rp1110
(I1
(I2
I2
tp1111
g36
I00
S'\x00\x00\x00\x00\x00\x00\x00\x00\x00\x00\x00\x00\x00\x00\x00\x00\x00\x00\x00\x00\x00\x00\xf0?\x00\x00\x00\x00\x00\x00\xf0?'
p1112
tp1113
bsg57
I01
sg58
g59
sbsg60
g1046
sg50
Nsg41
(dp1114
sg58
g59
sbssg58
g59
sbsI136412432
g0
(g92
g2
Ntp1115
Rp1116
(dp1117
g14
I1
sg96
I2
sg97
g0
(g92
g2
Ntp1118
Rp1119
(dp1120
g14
I1
sg96
I2
sg97
g0
(g100
g2
Ntp1121
Rp1122
(dp1123
g14
I1
sg70
Nsg82
Nsg104
g0
(g21
g2
Ntp1124
Rp1125
(dp1126
g14
I1
sg25
g26
(g27
(I0
tp1127
g29
tp1128
Rp1129
(I1
(I2
tp1130
g36
I00
S'H\xaf\xbc\x9a\xf2\xd7z>H\xaf\xbc\x9a\xf2\xd7z>'
p1131
tp1132
bsg41
(dp1133
I136412304
g1122
ssg43
g26
(g27
(I0
tp1134
g29
tp1135
Rp1136
(I1
(I2
I2
tp1137
g36
I00
S'\x00\x00\x00\x00\x00\x00\x00\x00\x00\x00\x00\x00\x00\x00\x00\x00\x00\x00\x00\x00\x00\x00\xf0?\x00\x00\x00\x00\x00\x00\xf0?'
p1138
tp1139
bsg50
g26
(g27
(I0
tp1140
g29
tp1141
Rp1142
(I1
(I2
I2
tp1143
g36
I00
S'\x00\x00\x00\x00\x00\x00\x00\x00\x00\x00\x00\x00\x00\x00\x00\x00\x00\x00\x00\x00\x00\x00\xf0?\x00\x00\x00\x00\x00\x00\xf0?'
p1144
tp1145
bsg57
I01
sg58
g59
sbsg41
(dp1146
I136413008
g1119
ssg58
g59
sbsg98
I2
sg99
g0
(g158
g2
Ntp1147
Rp1148
(dp1149
g14
I2
sg82
Nsg70
g26
(g27
(I0
tp1150
g29
tp1151
Rp1152
(I1
(I3
I3
tp1153
g36
I00
S'\x00\x00\x00\x00\x00\x00\xf0?\x00\x00\x00\x00\x00\x00\x00\x00\x00\x00\x00\x00\x00\x00\x00\x00\x00\x00\x00\x00\x00\x00\x00\x00\x00\x00\x00\x00\x00\x00\xf0?\x00\x00\x00\x00\x00\x00\x00\x00\x00\x00\x00\x00\x00\x00\x00\x00\x00\x00\x00\x00\x00\x00\x00\x00\x00\x00\x00\x00\x00\x00\xf0?'
p1154
tp1155
bsg58
g59
sg41
(dp1156
I136413008
g1119
ssbsg41
(dp1157
I136412432
g1116
ssg58
g59
sbsg98
I2
sg99
g102
sg41
(dp1158
I136412368
g0
(g16
g2
Ntp1159
Rp1160
(dp1161
g14
I1
sg20
g0
(g21
g2
Ntp1162
Rp1163
(dp1164
g14
I1
sg25
g26
(g27
(I0
tp1165
g29
tp1166
Rp1167
(I1
(I2
tp1168
g36
I00
S'H\xaf\xbc\x9a\xf2\xd7z>H\xaf\xbc\x9a\xf2\xd7z>'
p1169
tp1170
bsg41
(dp1171
I136412368
g1160
ssg43
g26
(g27
(I0
tp1172
g29
tp1173
Rp1174
(I1
(I2
I2
tp1175
g36
I00
S'\x00\x00\x00\x00\x00\x00\x00\x00\x00\x00\x00\x00\x00\x00\x00\x00\x00\x00\x00\x00\x00\x00\xf0?\x00\x00\x00\x00\x00\x00\xf0?'
p1176
tp1177
bsg50
g26
(g27
(I0
tp1178
g29
tp1179
Rp1180
(I1
(I2
I2
tp1181
g36
I00
S'\x00\x00\x00\x00\x00\x00\x00\x00\x00\x00\x00\x00\x00\x00\x00\x00\x00\x00\x00\x00\x00\x00\xf0?\x00\x00\x00\x00\x00\x00\xf0?'
p1182
tp1183
bsg57
I01
sg58
g59
sbsg60
g1116
sg50
Nsg41
(dp1184
sg58
g59
sbssg58
g59
sbsI100677456
g0
(g66
g2
Ntp1185
Rp1186
(dp1187
g14
I1
sg70
Nsg77
g0
(g78
g2
Ntp1188
Rp1189
(dp1190
g14
I1
sg82
Nsg58
g59
sg41
(dp1191
I100677456
g1186
ssbsg84
g102
sg82
Nsg58
g59
sg41
(dp1192
sbsI150748560
g0
(g92
g2
Ntp1193
Rp1194
(dp1195
g14
I1
sg96
I2
sg97
g0
(g92
g2
Ntp1196
Rp1197
(dp1198
g14
I1
sg96
I2
sg97
g0
(g100
g2
Ntp1199
Rp1200
(dp1201
g14
I1
sg70
Nsg82
Nsg104
g0
(g21
g2
Ntp1202
Rp1203
(dp1204
g14
I1
sg25
g26
(g27
(I0
tp1205
g29
tp1206
Rp1207
(I1
(I2
tp1208
g36
I00
S'H\xaf\xbc\x9a\xf2\xd7z>H\xaf\xbc\x9a\xf2\xd7z>'
p1209
tp1210
bsg41
(dp1211
I150749008
g1200
ssg43
g26
(g27
(I0
tp1212
g29
tp1213
Rp1214
(I1
(I2
I2
tp1215
g36
I00
S'\x00\x00\x00\x00\x00\x00\x00\x00\x00\x00\x00\x00\x00\x00\x00\x00\x00\x00\x00\x00\x00\x00\xf0?\x00\x00\x00\x00\x00\x00\xf0?'
p1216
tp1217
bsg50
g26
(g27
(I0
tp1218
g29
tp1219
Rp1220
(I1
(I2
I2
tp1221
g36
I00
S'\x00\x00\x00\x00\x00\x00\x00\x00\x00\x00\x00\x00\x00\x00\x00\x00\x00\x00\x00\x00\x00\x00\xf0?\x00\x00\x00\x00\x00\x00\xf0?'
p1222
tp1223
bsg57
I01
sg58
g59
sbsg41
(dp1224
I150745488
g1197
ssg58
g59
sbsg98
I2
sg99
g0
(g158
g2
Ntp1225
Rp1226
(dp1227
g14
I2
sg82
Nsg70
g26
(g27
(I0
tp1228
g29
tp1229
Rp1230
(I1
(I3
I3
tp1231
g36
I00
S'\x00\x00\x00\x00\x00\x00\xf0?\x00\x00\x00\x00\x00\x00\x00\x00\x00\x00\x00\x00\x00\x00\x00\x00\x00\x00\x00\x00\x00\x00\x00\x00\x00\x00\x00\x00\x00\x00\xf0?\x00\x00\x00\x00\x00\x00\x00\x00\x00\x00\x00\x00\x00\x00\x00\x00\x00\x00\x00\x00\x00\x00\x00\x00\x00\x00\x00\x00\x00\x00\xf0?'
p1232
tp1233
bsg58
g59
sg41
(dp1234
I150745488
g1197
ssbsg41
(dp1235
I150748560
g1194
ssg58
g59
sbsg98
I2
sg99
g102
sg41
(dp1236
I150748112
g0
(g16
g2
Ntp1237
Rp1238
(dp1239
g14
I1
sg20
g0
(g21
g2
Ntp1240
Rp1241
(dp1242
g14
I1
sg25
g26
(g27
(I0
tp1243
g29
tp1244
Rp1245
(I1
(I2
tp1246
g36
I00
S'H\xaf\xbc\x9a\xf2\xd7z>H\xaf\xbc\x9a\xf2\xd7z>'
p1247
tp1248
bsg41
(dp1249
I150748112
g1238
ssg43
g26
(g27
(I0
tp1250
g29
tp1251
Rp1252
(I1
(I2
I2
tp1253
g36
I00
S'\x00\x00\x00\x00\x00\x00\x00\x00\x00\x00\x00\x00\x00\x00\x00\x00\x00\x00\x00\x00\x00\x00\xf0?\x00\x00\x00\x00\x00\x00\xf0?'
p1254
tp1255
bsg50
g26
(g27
(I0
tp1256
g29
tp1257
Rp1258
(I1
(I2
I2
tp1259
g36
I00
S'\x00\x00\x00\x00\x00\x00\x00\x00\x00\x00\x00\x00\x00\x00\x00\x00\x00\x00\x00\x00\x00\x00\xf0?\x00\x00\x00\x00\x00\x00\xf0?'
p1260
tp1261
bsg57
I01
sg58
g59
sbsg60
g1194
sg50
Nsg41
(dp1262
sg58
g59
sbssg58
g59
sbsI100822544
g94
sI99893008
g0
(g92
g2
Ntp1263
Rp1264
(dp1265
g14
I1
sg96
I2
sg97
g0
(g92
g2
Ntp1266
Rp1267
(dp1268
g14
I1
sg96
I2
sg97
g0
(g100
g2
Ntp1269
Rp1270
(dp1271
g14
I1
sg70
Nsg82
Nsg104
g0
(g21
g2
Ntp1272
Rp1273
(dp1274
g14
I1
sg25
g26
(g27
(I0
tp1275
g29
tp1276
Rp1277
(I1
(I2
tp1278
g36
I00
S'H\xaf\xbc\x9a\xf2\xd7z>H\xaf\xbc\x9a\xf2\xd7z>'
p1279
tp1280
bsg41
(dp1281
I99892368
g1270
ssg43
g26
(g27
(I0
tp1282
g29
tp1283
Rp1284
(I1
(I2
I2
tp1285
g36
I00
S'\x00\x00\x00\x00\x00\x00\x00\x00\x00\x00\x00\x00\x00\x00\x00\x00\x00\x00\x00\x00\x00\x00\xf0?\x00\x00\x00\x00\x00\x00\xf0?'
p1286
tp1287
bsg50
g26
(g27
(I0
tp1288
g29
tp1289
Rp1290
(I1
(I2
I2
tp1291
g36
I00
S'\x00\x00\x00\x00\x00\x00\x00\x00\x00\x00\x00\x00\x00\x00\x00\x00\x00\x00\x00\x00\x00\x00\xf0?\x00\x00\x00\x00\x00\x00\xf0?'
p1292
tp1293
bsg57
I01
sg58
g59
sbsg41
(dp1294
I99889680
g1267
ssg58
g59
sbsg98
I2
sg99
g0
(g158
g2
Ntp1295
Rp1296
(dp1297
g14
I2
sg82
Nsg70
g26
(g27
(I0
tp1298
g29
tp1299
Rp1300
(I1
(I3
I3
tp1301
g36
I00
S'\x00\x00\x00\x00\x00\x00\xf0?\x00\x00\x00\x00\x00\x00\x00\x00\x00\x00\x00\x00\x00\x00\x00\x00\x00\x00\x00\x00\x00\x00\x00\x00\x00\x00\x00\x00\x00\x00\xf0?\x00\x00\x00\x00\x00\x00\x00\x00\x00\x00\x00\x00\x00\x00\x00\x00\x00\x00\x00\x00\x00\x00\x00\x00\x00\x00\x00\x00\x00\x00\xf0?'
p1302
tp1303
bsg58
g59
sg41
(dp1304
I99889680
g1267
ssbsg41
(dp1305
I99893008
g1264
ssg58
g59
sbsg98
I2
sg99
g102
sg41
(dp1306
I99889552
g0
(g16
g2
Ntp1307
Rp1308
(dp1309
g14
I1
sg20
g0
(g21
g2
Ntp1310
Rp1311
(dp1312
g14
I1
sg25
g26
(g27
(I0
tp1313
g29
tp1314
Rp1315
(I1
(I2
tp1316
g36
I00
S'H\xaf\xbc\x9a\xf2\xd7z>H\xaf\xbc\x9a\xf2\xd7z>'
p1317
tp1318
bsg41
(dp1319
I99889552
g1308
ssg43
g26
(g27
(I0
tp1320
g29
tp1321
Rp1322
(I1
(I2
I2
tp1323
g36
I00
S'\x00\x00\x00\x00\x00\x00\x00\x00\x00\x00\x00\x00\x00\x00\x00\x00\x00\x00\x00\x00\x00\x00\xf0?\x00\x00\x00\x00\x00\x00\xf0?'
p1324
tp1325
bsg50
g26
(g27
(I0
tp1326
g29
tp1327
Rp1328
(I1
(I2
I2
tp1329
g36
I00
S'\x00\x00\x00\x00\x00\x00\x00\x00\x00\x00\x00\x00\x00\x00\x00\x00\x00\x00\x00\x00\x00\x00\xf0?\x00\x00\x00\x00\x00\x00\xf0?'
p1330
tp1331
bsg57
I01
sg58
g59
sbsg60
g1264
sg50
Nsg41
(dp1332
sg58
g59
sbssg58
g59
sbsI150826832
g0
(g92
g2
Ntp1333
Rp1334
(dp1335
g14
I1
sg96
I2
sg97
g0
(g92
g2
Ntp1336
Rp1337
(dp1338
g14
I1
sg96
I2
sg97
g0
(g100
g2
Ntp1339
Rp1340
(dp1341
g14
I1
sg70
Nsg82
Nsg104
g0
(g21
g2
Ntp1342
Rp1343
(dp1344
g14
I1
sg25
g26
(g27
(I0
tp1345
g29
tp1346
Rp1347
(I1
(I2
tp1348
g36
I00
S'H\xaf\xbc\x9a\xf2\xd7z>H\xaf\xbc\x9a\xf2\xd7z>'
p1349
tp1350
bsg41
(dp1351
I150824912
g1340
ssg43
g26
(g27
(I0
tp1352
g29
tp1353
Rp1354
(I1
(I2
I2
tp1355
g36
I00
S'\x00\x00\x00\x00\x00\x00\x00\x00\x00\x00\x00\x00\x00\x00\x00\x00\x00\x00\x00\x00\x00\x00\xf0?\x00\x00\x00\x00\x00\x00\xf0?'
p1356
tp1357
bsg50
g26
(g27
(I0
tp1358
g29
tp1359
Rp1360
(I1
(I2
I2
tp1361
g36
I00
S'\x00\x00\x00\x00\x00\x00\x00\x00\x00\x00\x00\x00\x00\x00\x00\x00\x00\x00\x00\x00\x00\x00\xf0?\x00\x00\x00\x00\x00\x00\xf0?'
p1362
tp1363
bsg57
I01
sg58
g59
sbsg41
(dp1364
I150826256
g1337
ssg58
g59
sbsg98
I2
sg99
g0
(g158
g2
Ntp1365
Rp1366
(dp1367
g14
I2
sg82
Nsg70
g26
(g27
(I0
tp1368
g29
tp1369
Rp1370
(I1
(I3
I3
tp1371
g36
I00
S'\x00\x00\x00\x00\x00\x00\xf0?\x00\x00\x00\x00\x00\x00\x00\x00\x00\x00\x00\x00\x00\x00\x00\x00\x00\x00\x00\x00\x00\x00\x00\x00\x00\x00\x00\x00\x00\x00\xf0?\x00\x00\x00\x00\x00\x00\x00\x00\x00\x00\x00\x00\x00\x00\x00\x00\x00\x00\x00\x00\x00\x00\x00\x00\x00\x00\x00\x00\x00\x00\xf0?'
p1372
tp1373
bsg58
g59
sg41
(dp1374
I150826256
g1337
ssbsg41
(dp1375
I150826832
g1334
ssg58
g59
sbsg98
I2
sg99
g102
sg41
(dp1376
I150823952
g0
(g16
g2
Ntp1377
Rp1378
(dp1379
g14
I1
sg20
g0
(g21
g2
Ntp1380
Rp1381
(dp1382
g14
I1
sg25
g26
(g27
(I0
tp1383
g29
tp1384
Rp1385
(I1
(I2
tp1386
g36
I00
S'H\xaf\xbc\x9a\xf2\xd7z>H\xaf\xbc\x9a\xf2\xd7z>'
p1387
tp1388
bsg41
(dp1389
I150823952
g1378
ssg43
g26
(g27
(I0
tp1390
g29
tp1391
Rp1392
(I1
(I2
I2
tp1393
g36
I00
S'\x00\x00\x00\x00\x00\x00\x00\x00\x00\x00\x00\x00\x00\x00\x00\x00\x00\x00\x00\x00\x00\x00\xf0?\x00\x00\x00\x00\x00\x00\xf0?'
p1394
tp1395
bsg50
g26
(g27
(I0
tp1396
g29
tp1397
Rp1398
(I1
(I2
I2
tp1399
g36
I00
S'\x00\x00\x00\x00\x00\x00\x00\x00\x00\x00\x00\x00\x00\x00\x00\x00\x00\x00\x00\x00\x00\x00\xf0?\x00\x00\x00\x00\x00\x00\xf0?'
p1400
tp1401
bsg57
I01
sg58
g59
sbsg60
g1334
sg50
Nsg41
(dp1402
sg58
g59
sbssg58
g59
sbsI150793104
g0
(g66
g2
Ntp1403
Rp1404
(dp1405
g14
I1
sg70
Nsg77
g0
(g78
g2
Ntp1406
Rp1407
(dp1408
g14
I1
sg82
Nsg58
g59
sg41
(dp1409
I150793104
g1404
ssbsg84
g102
sg82
Nsg58
g59
sg41
(dp1410
sbsI111793552
g316
sI150618512
g0
(g92
g2
Ntp1411
Rp1412
(dp1413
g14
I1
sg96
I2
sg97
g0
(g92
g2
Ntp1414
Rp1415
(dp1416
g14
I1
sg96
I2
sg97
g0
(g100
g2
Ntp1417
Rp1418
(dp1419
g14
I1
sg70
Nsg82
Nsg104
g0
(g21
g2
Ntp1420
Rp1421
(dp1422
g14
I1
sg25
g26
(g27
(I0
tp1423
g29
tp1424
Rp1425
(I1
(I2
tp1426
g36
I00
S'H\xaf\xbc\x9a\xf2\xd7z>H\xaf\xbc\x9a\xf2\xd7z>'
p1427
tp1428
bsg41
(dp1429
I150826064
g1418
ssg43
g26
(g27
(I0
tp1430
g29
tp1431
Rp1432
(I1
(I2
I2
tp1433
g36
I00
S'\x00\x00\x00\x00\x00\x00\x00\x00\x00\x00\x00\x00\x00\x00\x00\x00\x00\x00\x00\x00\x00\x00\xf0?\x00\x00\x00\x00\x00\x00\xf0?'
p1434
tp1435
bsg50
g26
(g27
(I0
tp1436
g29
tp1437
Rp1438
(I1
(I2
I2
tp1439
g36
I00
S'\x00\x00\x00\x00\x00\x00\x00\x00\x00\x00\x00\x00\x00\x00\x00\x00\x00\x00\x00\x00\x00\x00\xf0?\x00\x00\x00\x00\x00\x00\xf0?'
p1440
tp1441
bsg57
I01
sg58
g59
sbsg41
(dp1442
I150618704
g1415
ssg58
g59
sbsg98
I2
sg99
g0
(g158
g2
Ntp1443
Rp1444
(dp1445
g14
I2
sg82
Nsg70
g26
(g27
(I0
tp1446
g29
tp1447
Rp1448
(I1
(I3
I3
tp1449
g36
I00
S'\x00\x00\x00\x00\x00\x00\xf0?\x00\x00\x00\x00\x00\x00\x00\x00\x00\x00\x00\x00\x00\x00\x00\x00\x00\x00\x00\x00\x00\x00\x00\x00\x00\x00\x00\x00\x00\x00\xf0?\x00\x00\x00\x00\x00\x00\x00\x00\x00\x00\x00\x00\x00\x00\x00\x00\x00\x00\x00\x00\x00\x00\x00\x00\x00\x00\x00\x00\x00\x00\xf0?'
p1450
tp1451
bsg58
g59
sg41
(dp1452
I150618704
g1415
ssbsg41
(dp1453
I150618512
g1412
ssg58
g59
sbsg98
I2
sg99
g102
sg41
(dp1454
I150619536
g0
(g16
g2
Ntp1455
Rp1456
(dp1457
g14
I1
sg20
g0
(g21
g2
Ntp1458
Rp1459
(dp1460
g14
I1
sg25
g26
(g27
(I0
tp1461
g29
tp1462
Rp1463
(I1
(I2
tp1464
g36
I00
S'H\xaf\xbc\x9a\xf2\xd7z>H\xaf\xbc\x9a\xf2\xd7z>'
p1465
tp1466
bsg41
(dp1467
I150619536
g1456
ssg43
g26
(g27
(I0
tp1468
g29
tp1469
Rp1470
(I1
(I2
I2
tp1471
g36
I00
S'\x00\x00\x00\x00\x00\x00\x00\x00\x00\x00\x00\x00\x00\x00\x00\x00\x00\x00\x00\x00\x00\x00\xf0?\x00\x00\x00\x00\x00\x00\xf0?'
p1472
tp1473
bsg50
g26
(g27
(I0
tp1474
g29
tp1475
Rp1476
(I1
(I2
I2
tp1477
g36
I00
S'\x00\x00\x00\x00\x00\x00\x00\x00\x00\x00\x00\x00\x00\x00\x00\x00\x00\x00\x00\x00\x00\x00\xf0?\x00\x00\x00\x00\x00\x00\xf0?'
p1478
tp1479
bsg57
I01
sg58
g59
sbsg60
g1412
sg50
Nsg41
(dp1480
sg58
g59
sbssg58
g59
sbsI100676112
g0
(g66
g2
Ntp1481
Rp1482
(dp1483
g14
I1
sg70
Nsg77
g0
(g78
g2
Ntp1484
Rp1485
(dp1486
g14
I1
sg82
Nsg58
g59
sg41
(dp1487
I100676112
g1482
ssbsg84
g102
sg82
Nsg58
g59
sg41
(dp1488
sbsI150811408
g0
(g92
g2
Ntp1489
Rp1490
(dp1491
g14
I1
sg96
I2
sg97
g0
(g92
g2
Ntp1492
Rp1493
(dp1494
g14
I1
sg96
I2
sg97
g0
(g100
g2
Ntp1495
Rp1496
(dp1497
g14
I1
sg70
Nsg82
Nsg104
g0
(g21
g2
Ntp1498
Rp1499
(dp1500
g14
I1
sg25
g26
(g27
(I0
tp1501
g29
tp1502
Rp1503
(I1
(I2
tp1504
g36
I00
S'H\xaf\xbc\x9a\xf2\xd7z>H\xaf\xbc\x9a\xf2\xd7z>'
p1505
tp1506
bsg41
(dp1507
I150810768
g1496
ssg43
g26
(g27
(I0
tp1508
g29
tp1509
Rp1510
(I1
(I2
I2
tp1511
g36
I00
S'\x00\x00\x00\x00\x00\x00\x00\x00\x00\x00\x00\x00\x00\x00\x00\x00\x00\x00\x00\x00\x00\x00\xf0?\x00\x00\x00\x00\x00\x00\xf0?'
p1512
tp1513
bsg50
g26
(g27
(I0
tp1514
g29
tp1515
Rp1516
(I1
(I2
I2
tp1517
g36
I00
S'\x00\x00\x00\x00\x00\x00\x00\x00\x00\x00\x00\x00\x00\x00\x00\x00\x00\x00\x00\x00\x00\x00\xf0?\x00\x00\x00\x00\x00\x00\xf0?'
p1518
tp1519
bsg57
I01
sg58
g59
sbsg41
(dp1520
I150814608
g1493
ssg58
g59
sbsg98
I2
sg99
g0
(g158
g2
Ntp1521
Rp1522
(dp1523
g14
I2
sg82
Nsg70
g26
(g27
(I0
tp1524
g29
tp1525
Rp1526
(I1
(I3
I3
tp1527
g36
I00
S'\x00\x00\x00\x00\x00\x00\xf0?\x00\x00\x00\x00\x00\x00\x00\x00\x00\x00\x00\x00\x00\x00\x00\x00\x00\x00\x00\x00\x00\x00\x00\x00\x00\x00\x00\x00\x00\x00\xf0?\x00\x00\x00\x00\x00\x00\x00\x00\x00\x00\x00\x00\x00\x00\x00\x00\x00\x00\x00\x00\x00\x00\x00\x00\x00\x00\x00\x00\x00\x00\xf0?'
p1528
tp1529
bsg58
g59
sg41
(dp1530
I150814608
g1493
ssbsg41
(dp1531
I150811408
g1490
ssg58
g59
sbsg98
I2
sg99
g102
sg41
(dp1532
I150812560
g0
(g16
g2
Ntp1533
Rp1534
(dp1535
g14
I1
sg20
g0
(g21
g2
Ntp1536
Rp1537
(dp1538
g14
I1
sg25
g26
(g27
(I0
tp1539
g29
tp1540
Rp1541
(I1
(I2
tp1542
g36
I00
S'H\xaf\xbc\x9a\xf2\xd7z>H\xaf\xbc\x9a\xf2\xd7z>'
p1543
tp1544
bsg41
(dp1545
I150812560
g1534
ssg43
g26
(g27
(I0
tp1546
g29
tp1547
Rp1548
(I1
(I2
I2
tp1549
g36
I00
S'\x00\x00\x00\x00\x00\x00\x00\x00\x00\x00\x00\x00\x00\x00\x00\x00\x00\x00\x00\x00\x00\x00\xf0?\x00\x00\x00\x00\x00\x00\xf0?'
p1550
tp1551
bsg50
g26
(g27
(I0
tp1552
g29
tp1553
Rp1554
(I1
(I2
I2
tp1555
g36
I00
S'\x00\x00\x00\x00\x00\x00\x00\x00\x00\x00\x00\x00\x00\x00\x00\x00\x00\x00\x00\x00\x00\x00\xf0?\x00\x00\x00\x00\x00\x00\xf0?'
p1556
tp1557
bsg57
I01
sg58
g59
sbsg60
g1490
sg50
Nsg41
(dp1558
sg58
g59
sbssg58
g59
sbssg58
g59
sbsg41
(dp1559
I100820112
g185
ssg58
g59
sbssbsS'_get_patches_for_fill'
p1560
g0
(cmatplotlib.axes
_process_plot_var_args
p1561
g2
Ntp1562
Rp1563
(dp1564
S'axes'
p1565
g7
sS'command'
p1566
S'fill'
p1567
sbsS'_xcid'
p1568
I1
sS'_label'
p1569
S''
p1570
sS'legend_'
p1571
NsS'texts'
p1572
(lp1573
sS'_frameon'
p1574
I01
sS'_autoscaleYon'
p1575
I01
sS'_hold'
p1576
I01
sS'artists'
p1577
(lp1578
sS'_clipon'
p1579
I01
sS'tables'
p1580
(lp1581
sS'patches'
p1582
(lp1583
sS'title'
p1584
g0
(cmatplotlib.text
Text
p1585
g2
Ntp1586
Rp1587
(dp1588
g1569
g59
sg20
NsS'figure'
p1589
g0
(cmatplotlib.figure
Figure
p1590
g2
Ntp1591
Rp1592
(dp1593
g1569
g59
sS'_visible'
p1594
I01
sg1589
NsS'number'
p1595
I1
sS'_rasterized'
p1596
Nsg1572
(lp1597
sg1576
I01
sg1577
(lp1598
sS'images'
p1599
(lp1600
sS'frameon'
p1601
I01
sg1579
I01
sS'__mpl_version__'
p1602
S'1.3.1'
p1603
sS'_clippath'
p1604
NsS'_contains'
p1605
NsS'_tight_parameters'
p1606
(dp1607
sS'_animated'
p1608
I00
sS'_propobservers'
p1609
(dp1610
sS'eventson'
p1611
I00
sS'_remove_method'
p1612
NsS'figurePatch'
p1613
g0
(cmatplotlib.patches
Rectangle
p1614
g2
Ntp1615
Rp1616
(dp1617
g1569
g59
sS'_width'
p1618
I1
sS'_fill'
p1619
I01
sg1589
g1592
sg1594
I01
sS'_agg_filter'
p1620
NsS'_path_effects'
p1621
(lp1622
sg1579
I01
sS'_combined_transform'
p1623
g0
(g78
g2
Ntp1624
Rp1625
(dp1626
g14
I1
sg82
Nsg58
g59
sg41
(dp1627
sbsS'_edgecolor'
p1628
(F1.0
F1.0
F1.0
F1.0
tp1629
sg1604
Nsg77
I0
sg84
I0
sS'_sketch'
p1630
Nsg1605
Nsg1565
Nsg1596
NsS'_hatch'
p1631
Nsg1609
(dp1632
sS'_rect_transform'
p1633
g0
(g78
g2
Ntp1634
Rp1635
(dp1636
g14
I1
sg82
Nsg58
g59
sg41
(dp1637
sbsg1611
I00
sg1608
I00
sS'_linewidth'
p1638
F0.0
sS'_url'
p1639
NsS'_height'
p1640
I1
sS'_picker'
p1641
NsS'_antialiased'
p1642
I00
sS'_original_facecolor'
p1643
S'0.75'
p1644
sS'_snap'
p1645
NsS'_facecolor'
p1646
(F0.75
F0.75
F0.75
F1.0
tp1647
sS'_lod'
p1648
I00
sS'_linestyle'
p1649
S'solid'
p1650
sS'_original_edgecolor'
p1651
S'w'
p1652
sS'_oid'
p1653
I0
sS'_transformSet'
p1654
I01
sS'_angle'
p1655
F0.0
sS'_alpha'
p1656
Nsg60
g131
sS'_gid'
p1657
NsS'clipbox'
p1658
Nsg1612
Nsbsg1620
Nsg1639
NsS'_restore_to_pylab'
p1659
I01
sg1641
NsS'_suptitle'
p1660
NsS'dpi_scale_trans'
p1661
g160
sS'callbacks'
p1662
(imatplotlib.cbook
CallbackRegistry
p1663
(dp1665
bsg1645
NsS'_tight'
p1666
I00
sg1648
I00
sS'bbox'
p1667
g134
sg1630
Nsg1653
I0
sg1582
(lp1668
sS'legends'
p1669
(lp1670
sS'suppressComposite'
p1671
Nsg1654
I00
sg1656
NsS'_axstack'
p1672
g0
(cmatplotlib.figure
AxesStack
p1673
g2
Ntp1674
Rp1675
(dp1676
S'_default'
p1677
NsS'_elements'
p1678
(lp1679
(((I1
I1
I1
tp1680
(ttp1681
(I1
g7
tp1682
tp1683
asS'_ind'
p1684
I1
sS'_pos'
p1685
I0
sbsg60
NsS'lines'
p1686
(lp1687
sS'patch'
p1688
g1616
sS'subplotpars'
p1689
(imatplotlib.figure
SubplotParams
p1690
(dp1691
S'right'
p1692
F0.9
sS'bottom'
p1693
F0.1
sS'top'
p1694
F0.9
sS'wspace'
p1695
F0.2
sS'validate'
p1696
I01
sS'hspace'
p1697
F0.2
sS'left'
p1698
F0.125
sbsg1621
g1622
sg1657
Nsg1658
NsS'bbox_inches'
p1699
g137
sS'transFigure'
p1700
g131
sS'_dpi'
p1701
I80
sbsg1594
I01
sS'_fontproperties'
p1702
g0
(cmatplotlib.font_manager
FontProperties
p1703
g2
Ntp1704
Rp1705
(dp1706
S'_family'
p1707
(lp1708
S'sans-serif'
p1709
asS'_file'
p1710
NsS'_variant'
p1711
S'normal'
p1712
sS'_slant'
p1713
g1712
sS'_size'
p1714
S'large'
p1715
sS'_weight'
p1716
g1712
sS'_stretch'
p1717
g1712
sbsg1620
Nsg1621
g1622
sS'_multialignment'
p1718
Nsg1579
I01
sg1604
Nsg77
F1.0
sg84
F0.5
sg1605
Nsg1565
g7
sg1596
Nsg1608
I00
sg1609
(dp1719
sS'_renderer'
p1720
Nsg1611
I00
sg1612
Nsg1639
Nsg1658
NsS'_rotation_mode'
p1721
Nsg1641
Nsg1645
Nsg1648
I00
sS'_verticalalignment'
p1722
S'baseline'
p1723
sS'_text'
p1724
S''
p1725
sS'_bbox_patch'
p1726
Nsg1630
Nsg1653
I0
sS'_rotation'
p1727
Nsg1654
I01
sg1656
NsS'_linespacing'
p1728
F1.2
sg60
g316
sg1657
NsS'_color'
p1729
S'k'
p1730
sS'_horizontalalignment'
p1731
S'center'
p1732
sbsS'_current_image'
p1733
Nsg1596
NsS'_cursorProps'
p1734
(I1
(F0.0
F0.0
F0.0
F1.0
tp1735
tp1736
sS'numRows'
p1737
I1
sS'collections'
p1738
(lp1739
sg1608
I00
sg1609
(dp1740
sg1611
I00
sS'containers'
p1741
(lp1742
sg1658
NsS'_get_lines'
p1743
g0
(g1561
g2
Ntp1744
Rp1745
(dp1746
g1565
g7
sg1566
S'plot'
p1747
sbsS'_aspect'
p1748
S'auto'
p1749
sS'fmt_xdata'
p1750
Nsg1662
(imatplotlib.cbook
CallbackRegistry
p1751
(dp1752
bsg1645
NsS'_anchor'
p1753
S'C'
p1754
sg1648
I00
sg1667
g106
sS'ignore_existing_data_limits'
p1755
I00
sg1630
Nsg1653
I0
sg1654
I00
sS'_left_title'
p1756
g0
(g1585
g2
Ntp1757
Rp1758
(dp1759
g1569
g59
sg20
Nsg1589
g1592
sg1594
I01
sg1702
g1705
sg1620
Nsg1621
g1622
sg1718
Nsg1579
I01
sg1604
Nsg77
F1.0
sg84
F0.0
sg1605
Nsg1565
g7
sg1596
Nsg1608
I00
sg1609
(dp1760
sg1720
Nsg1611
I00
sg1612
Nsg1639
Nsg1658
Nsg1721
Nsg1641
Nsg1645
Nsg1648
I00
sg1722
g1723
sg1724
S''
p1761
sg1726
Nsg1630
Nsg1653
I0
sg1727
Nsg1654
I01
sg1656
Nsg1728
F1.2
sg60
g320
sg1657
Nsg1729
g1730
sg1731
g1698
sbsS'_right_title'
p1762
g0
(g1585
g2
Ntp1763
Rp1764
(dp1765
g1569
g59
sg20
Nsg1589
g1592
sg1594
I01
sg1702
g1705
sg1620
Nsg1621
g1622
sg1718
Nsg1579
I01
sg1604
Nsg77
F1.0
sg84
F1.0
sg1605
Nsg1565
g7
sg1596
Nsg1608
I00
sg1609
(dp1766
sg1720
Nsg1611
I00
sg1612
Nsg1639
Nsg1658
Nsg1721
Nsg1641
Nsg1645
Nsg1648
I00
sg1722
g1723
sg1724
S''
p1767
sg1726
Nsg1630
Nsg1653
I0
sg1727
Nsg1654
I01
sg1656
Nsg1728
F1.2
sg60
g324
sg1657
Nsg1729
g1730
sg1731
g1692
sbsS'transScale'
p1768
g63
sg60
NsS'axison'
p1769
I01
sg1688
g0
(g1614
g2
Ntp1770
Rp1771
(dp1772
g1569
g59
sg1618
F1.0
sg1619
I01
sg1589
g1592
sg1594
I01
sg1620
Nsg1621
g1622
sg1579
I01
sg1623
g0
(g78
g2
Ntp1773
Rp1774
(dp1775
g14
I1
sg82
Nsg58
g59
sg41
(dp1776
sbsg1628
(F0.0
F0.0
F0.0
F0.0
tp1777
sg1604
Nsg77
F0.0
sg84
F0.0
sg1630
Nsg1605
Nsg1565
Nsg1596
Nsg1631
Nsg1609
(dp1778
sg1633
g1493
sg1611
I00
sg1608
I00
sg1638
I0
sg1639
Nsg1640
F1.0
sg1641
Nsg1642
I01
sg1643
g1652
sg1645
Nsg1646
(F1.0
F1.0
F1.0
F1.0
tp1779
sg1648
I00
sg1649
g1650
sg1651
S'None'
p1780
sg1653
I0
sg1654
I01
sg1655
F0.0
sg1656
Nsg60
g102
sg1657
Nsg1658
Nsg1612
NsbsS'viewLim'
p1781
g23
sg1621
g1622
sS'_subplotspec'
p1782
g0
(cmatplotlib.gridspec
SubplotSpec
p1783
g2
Ntp1784
Rp1785
(dp1786
S'num1'
p1787
I0
sS'num2'
p1788
NsS'_gridspec'
p1789
g0
(cmatplotlib.gridspec
GridSpec
p1790
g2
Ntp1791
Rp1792
(dp1793
S'_nrows'
p1794
I1
sg1692
NsS'_col_width_ratios'
p1795
Nsg1693
Nsg1694
Nsg1695
NsS'_ncols'
p1796
I1
sg1697
NsS'_row_height_ratios'
p1797
Nsg1698
NsbsbsS'_adjustable'
p1798
S'box'
p1799
sg1589
g1592
sS'titleOffsetTrans'
p1800
g311
sS'_yaxis_transform'
p1801
g192
sS'_gridOn'
p1802
I00
sS'axesPatch'
p1803
g1771
sS'colNum'
p1804
I0
sg1620
Nsg1599
(lp1805
sS'_autoscaleXon'
p1806
I01
sS'_xmargin'
p1807
I0
sS'rowNum'
p1808
I0
sS'_position'
p1809
g109
sS'_rasterization_zorder'
p1810
NsS'_cachedRenderer'
p1811
NsS'_navigate'
p1812
I01
sS'_xaxis_transform'
p1813
g182
sS'_originalPosition'
p1814
g0
(g21
g2
Ntp1815
Rp1816
(dp1817
g14
I1
sg25
g26
(g27
(I0
tp1818
g29
tp1819
Rp1820
(I1
(I2
tp1821
g36
I00
S'H\xaf\xbc\x9a\xf2\xd7z>H\xaf\xbc\x9a\xf2\xd7z>'
p1822
tp1823
bsg41
(dp1824
sg43
g26
(g27
(I0
tp1825
g29
tp1826
Rp1827
(I1
(I2
I2
tp1828
g36
I00
S'\x00\x00\x00\x00\x00\x00\xc0?\x98\x99\x99\x99\x99\x99\xb9?\xcd\xcc\xcc\xcc\xcc\xcc\xec?\xcd\xcc\xcc\xcc\xcc\xcc\xec?'
p1829
tp1830
bsg50
g26
(g27
(I0
tp1831
g29
tp1832
Rp1833
(I1
(I2
I2
tp1834
g36
I00
S'\x00\x00\x00\x00\x00\x00\xc0?\x98\x99\x99\x99\x99\x99\xb9?\xcd\xcc\xcc\xcc\xcc\xcc\xec?\xcd\xcc\xcc\xcc\xcc\xcc\xec?'
p1835
tp1836
bsg57
I01
sg58
g59
sbsg1605
Nsg1565
g7
sS'figbox'
p1837
g109
sS'xaxis'
p1838
g0
(cmatplotlib.axis
XAxis
p1839
g2
Ntp1840
Rp1841
(dp1842
g1569
g59
sS'major'
p1843
(imatplotlib.axis
Ticker
p1844
(dp1845
S'locator'
p1846
g0
(cmatplotlib.ticker
AutoLocator
p1847
g2
Ntp1848
Rp1849
(dp1850
S'_symmetric'
p1851
I00
sS'_nbins'
p1852
I9
sS'_steps'
p1853
(lp1854
I1
aI2
aI5
aI10
asS'_prune'
p1855
NsS'_integer'
p1856
I00
sS'_trim'
p1857
I01
sS'axis'
p1858
g1841
sbsS'formatter'
p1859
g0
(cmatplotlib.ticker
FixedFormatter
p1860
g2
Ntp1861
Rp1862
(dp1863
S'offset_string'
p1864
g59
sS'seq'
p1865
g26
(g27
(I0
tp1866
g29
tp1867
Rp1868
(I1
(I9
tp1869
g36
I00
S'\x00\x00\x00\x00\x00\x00\x00\x00\x00\x00\x00\x00\x00\x00\xf0?\x00\x00\x00\x00\x00\x00\x00@\x00\x00\x00\x00\x00\x00\x08@\x00\x00\x00\x00\x00\x00\x10@\x00\x00\x00\x00\x00\x00\x14@\x00\x00\x00\x00\x00\x00\x18@\x00\x00\x00\x00\x00\x00\x1c@\x00\x00\x00\x00\x00\x00 @'
p1870
tp1871
bsg1858
g1841
sbsbsS'isDefault_label'
p1872
I00
sS'_scale'
p1873
g0
(cmatplotlib.scale
LinearScale
p1874
g2
Ntp1875
Rp1876
sg1589
g1592
sg1594
I01
sS'_gridOnMinor'
p1877
I00
sS'majorTicks'
p1878
(lp1879
g0
(cmatplotlib.axis
XTick
p1880
g2
Ntp1881
Rp1882
(dp1883
g1569
g59
sg1618
F0.5
sg1589
g1592
sS'tick1On'
p1884
I01
sg1594
I01
sg1653
I0
sg1620
NsS'_pad'
p1885
I4
sS'_labelcolor'
p1886
g1730
sS'gridOn'
p1887
I01
sg1714
I4
sg1621
g1622
sS'_tickdir'
p1888
S'in'
p1889
sS'label'
p1890
g0
(g1585
g2
Ntp1891
Rp1892
(dp1893
g1569
g59
sg20
Nsg1589
g1592
sg1594
I01
sg1702
g0
(g1703
g2
Ntp1894
Rp1895
(dp1896
g1707
(lp1897
g1709
asg1710
Nsg1711
g1712
sg1713
g1712
sg1714
F16.0
sg1716
g1712
sg1717
g1712
sbsg1620
Nsg1621
g1622
sg1718
Nsg1579
I01
sg1604
Nsg77
I0
sg84
I0
sg1605
Nsg1565
Nsg1596
Nsg1608
I00
sg1609
(dp1898
sg1720
Nsg1611
I00
sg1612
Nsg1639
Nsg1658
Nsg1721
Nsg1641
Nsg1645
Nsg1648
I00
sg1722
g1694
sg1724
S'0.0'
p1899
sg1726
Nsg1630
Nsg1653
I0
sg1727
Nsg1654
I01
sg1656
Nsg1728
F1.2
sg60
g178
sg1657
Nsg1729
g1730
sg1731
g1732
sbsg1579
I01
sg1604
NsS'label2On'
p1900
I00
sg1605
Nsg1565
g7
sg1596
NsS'tick2On'
p1901
I01
sg1608
I00
sg1609
(dp1902
sS'_tickmarkers'
p1903
(I2
I3
tp1904
sg1611
I00
sS'_zorder'
p1905
F2.01
sg1612
NsS'label1On'
p1906
I01
sg1639
Nsg1658
g592
sS'label1'
p1907
g1892
sS'label2'
p1908
g0
(g1585
g2
Ntp1909
Rp1910
(dp1911
g1569
g59
sg20
Nsg1589
g1592
sg1594
I01
sg1702
g0
(g1703
g2
Ntp1912
Rp1913
(dp1914
g1707
(lp1915
g1709
asg1710
Nsg1711
g1712
sg1713
g1712
sg1714
S'medium'
p1916
sg1716
g1712
sg1717
g1712
sbsg1620
Nsg1621
g1622
sg1718
Nsg1579
I01
sg1604
Nsg77
I1
sg84
I0
sg1605
Nsg1565
Nsg1596
Nsg1608
I00
sg1609
(dp1917
sg1720
Nsg1611
I00
sg1612
Nsg1639
Nsg1658
Nsg1721
Nsg1641
Nsg1645
Nsg1648
I00
sg1722
g1693
sg1724
S''
p1918
sg1726
Nsg1630
Nsg1653
I0
sg1727
Nsg1654
I01
sg1656
Nsg1728
F1.2
sg60
g265
sg1657
Nsg1729
g1730
sg1731
g1732
sbsg1645
NsS'_loc'
p1919
I0
sg1648
I00
sg1630
NsS'_base_pad'
p1920
I4
sg1654
I00
sS'gridline'
p1921
g0
(cmatplotlib.lines
Line2D
p1922
g2
Ntp1923
Rp1924
(dp1925
g1569
g59
sg1594
I01
sS'_solidcapstyle'
p1926
S'projecting'
p1927
sg1589
g1592
sS'_dashcapstyle'
p1928
S'butt'
p1929
sS'_marker'
p1930
g0
(cmatplotlib.markers
MarkerStyle
p1931
g2
Ntp1932
Rp1933
(dp1934
g1930
g1780
sS'_alt_path'
p1935
NsS'_snap_threshold'
p1936
Nsg60
g0
(g78
g2
Ntp1937
Rp1938
(dp1939
g14
I1
sg82
Nsg58
g59
sg41
(dp1940
sbsS'_filled'
p1941
I00
sS'_fillstyle'
p1942
S'full'
p1943
sS'_alt_transform'
p1944
NsS'_capstyle'
p1945
S'butt'
p1946
sS'_joinstyle'
p1947
S'round'
p1948
sS'_path'
p1949
g0
(cmatplotlib.path
Path
p1950
g2
Ntp1951
Rp1952
(dp1953
S'_should_simplify'
p1954
I00
sS'_codes'
p1955
NsS'_vertices'
p1956
g26
(g27
(I0
tp1957
g29
tp1958
Rp1959
(I1
(I0
I2
tp1960
g36
I00
g59
tp1961
bsS'_readonly'
p1962
I00
sS'_simplify_threshold'
p1963
F0.1111111111111111
sS'_interpolation_steps'
p1964
I1
sS'_has_nonfinite'
p1965
I00
sbsbsg1620
Nsg1621
g1622
sS'_solidjoinstyle'
p1966
S'round'
p1967
sg1579
I01
sS'ind_offset'
p1968
I0
sg77
g26
(g27
(I0
tp1969
g29
tp1970
Rp1971
(I1
(I2
tp1972
g36
I00
S'\x00\x00\x00\x00\x00\x00\x00\x00\x00\x00\x00\x00\x00\x00\xf0?'
p1973
tp1974
bsg84
g26
(g27
(I0
tp1975
g29
tp1976
Rp1977
(I1
(I2
tp1978
g36
I00
S'\x00\x00\x00\x00\x00\x00\x00\x00\x00\x00\x00\x00\x00\x00\x00\x00'
p1979
tp1980
bsg1630
Nsg1605
Nsg1565
Nsg1596
Nsg1639
NsS'_markevery'
p1981
Nsg1608
I00
sg1609
(dp1982
sS'verticalOffset'
p1983
Nsg1611
I00
sS'_subslice'
p1984
I00
sg1612
NsS'_transformed_path'
p1985
NsS'_markeredgewidth'
p1986
F0.5
sS'_markerfacecolor'
p1987
g1749
sS'_dashSeq'
p1988
Nsg1658
g1090
sg1641
NsS'_markerfacecoloralt'
p1989
S'none'
p1990
sg1642
I01
sS'_markeredgecolor'
p1991
g1749
sg1645
NsS'_markersize'
p1992
I0
sg1648
I00
sS'_xy'
p1993
g26
(g27
(I0
tp1994
g29
tp1995
Rp1996
(I1
(I2
I2
tp1997
g36
I00
S'\x00\x00\x00\x00\x00\x00\x00\x00\x00\x00\x00\x00\x00\x00\x00\x00\x00\x00\x00\x00\x00\x00\x00\x00\x00\x00\x00\x00\x00\x00\xf0?'
p1998
tp1999
bsg1649
S':'
p2000
sS'_xorig'
p2001
(F0.0
F0.0
tp2002
sg1653
I0
sS'_drawstyle'
p2003
S'default'
p2004
sg1604
NsS'pickradius'
p2005
I5
sg1654
I01
sg1656
F1.0
sS'_dashjoinstyle'
p2006
S'round'
p2007
sS'_invalidx'
p2008
I00
sg60
g182
sS'_invalidy'
p2009
I00
sg1657
Nsg1729
g1730
sS'_yorig'
p2010
(I0
F1.0
tp2011
sg1638
F0.5
sg1949
g0
(g1950
g2
Ntp2012
Rp2013
(dp2014
g1954
I00
sg1955
Nsg1956
g1996
sg1962
I00
sg1963
F0.1111111111111111
sg1964
I180
sg1965
I00
sbsbsg1656
Nsg1641
NsS'tick2line'
p2015
g0
(g1922
g2
Ntp2016
Rp2017
(dp2018
g1569
g59
sg1594
I01
sg1926
S'projecting'
p2019
sg1589
g1592
sg1928
S'butt'
p2020
sg1930
g0
(g1931
g2
Ntp2021
Rp2022
(dp2023
g1930
I3
sg1935
Nsg1936
F1.0
sg60
g0
(g158
g2
Ntp2024
Rp2025
(dp2026
g14
I2
sg82
Nsg70
g26
(g27
(I0
tp2027
g29
tp2028
Rp2029
(I1
(I3
I3
tp2030
g36
I00
S'\x00\x00\x00\x00\x00\x00\xf0?\x00\x00\x00\x00\x00\x00\x00\x00\x00\x00\x00\x00\x00\x00\x00\x00\x00\x00\x00\x00\x00\x00\x00\x00\x00\x00\x00\x00\x00\x00\xf0\xbf\x00\x00\x00\x00\x00\x00\x00\x00\x00\x00\x00\x00\x00\x00\x00\x00\x00\x00\x00\x00\x00\x00\x00\x00\x00\x00\x00\x00\x00\x00\xf0?'
p2031
tp2032
bsg58
g59
sg41
(dp2033
sbsg1941
I00
sg1942
g1943
sg1944
Nsg1945
g1946
sg1947
g1948
sg1949
g0
(g1950
g2
Ntp2034
Rp2035
(dp2036
g1954
I00
sg1955
Nsg1956
g26
(g27
(I0
tp2037
g29
tp2038
Rp2039
(I1
(I2
I2
tp2040
g36
I00
S'\x00\x00\x00\x00\x00\x00\x00\x80\x00\x00\x00\x00\x00\x00\x00\x00\x00\x00\x00\x00\x00\x00\x00\x80\x00\x00\x00\x00\x00\x00\xf0?'
p2041
tp2042
bsg1962
I00
sg1963
F0.1111111111111111
sg1964
I1
sg1965
I00
sbsbsg1620
Nsg1621
g1622
sg1966
S'round'
p2043
sg1579
I01
sg1968
I0
sg1630
Nsg1605
Nsg1565
Nsg1596
Nsg1639
Nsg1981
Nsg1608
I00
sg1609
(dp2044
sg1611
I00
sg1612
Nsg1983
Nsg1986
F0.5
sg1987
g1749
sg1988
Nsg1658
Nsg1641
Nsg1989
g1990
sg1642
I01
sg1991
g1749
sg1645
Nsg1992
I4
sg1648
I00
sg1649
g1780
sg2001
(I0
tp2045
sg1653
I0
sg2003
g2004
sg1604
Nsg2005
I5
sg1654
I01
sg1656
Nsg2006
S'round'
p2046
sg2008
I01
sg60
g182
sg2009
I01
sS'zorder'
p2047
F2.01
sg1657
Nsg1729
g1730
sg2010
(I1
tp2048
sg1638
F1.0
sbsg60
NsS'_labelsize'
p2049
g1916
sS'_name'
p2050
S'xtick'
p2051
sg1657
Nsg1729
g1730
sS'tick1line'
p2052
g0
(g1922
g2
Ntp2053
Rp2054
(dp2055
g1569
g59
sg1594
I01
sg1926
S'projecting'
p2056
sg1589
g1592
sg1928
S'butt'
p2057
sg1930
g0
(g1931
g2
Ntp2058
Rp2059
(dp2060
g1930
I2
sg1935
Nsg1936
F1.0
sg60
g0
(g158
g2
Ntp2061
Rp2062
(dp2063
g14
I2
sg82
Nsg70
g26
(g27
(I0
tp2064
g29
tp2065
Rp2066
(I1
(I3
I3
tp2067
g36
I00
S'\x00\x00\x00\x00\x00\x00\xf0?\x00\x00\x00\x00\x00\x00\x00\x00\x00\x00\x00\x00\x00\x00\x00\x00\x00\x00\x00\x00\x00\x00\x00\x00\x00\x00\x00\x00\x00\x00\xf0?\x00\x00\x00\x00\x00\x00\x00\x00\x00\x00\x00\x00\x00\x00\x00\x00\x00\x00\x00\x00\x00\x00\x00\x00\x00\x00\x00\x00\x00\x00\xf0?'
p2068
tp2069
bsg58
g59
sg41
(dp2070
sbsg1941
I00
sg1942
g1943
sg1944
Nsg1945
g1946
sg1947
g1948
sg1949
g2035
sbsg1620
Nsg1621
g1622
sg1966
S'round'
p2071
sg1579
I01
sg1968
I0
sg1630
Nsg1605
Nsg1565
Nsg1596
Nsg1639
Nsg1981
Nsg1608
I00
sg1609
(dp2072
sg1611
I00
sg1612
Nsg1983
Nsg1986
F0.5
sg1987
g1749
sg1988
Nsg1658
Nsg1641
Nsg1989
g1990
sg1642
I01
sg1991
g1749
sg1645
Nsg1992
I4
sg1648
I00
sg1649
g1780
sg2001
(I0
tp2073
sg1653
I0
sg2003
g2004
sg1604
Nsg2005
I5
sg1654
I01
sg1656
Nsg2006
S'round'
p2074
sg2008
I01
sg60
g182
sg2009
I01
sg2047
F2.01
sg1657
Nsg1729
g1730
sg2010
(I0
tp2075
sg1638
F1.0
sbsbag0
(g1880
g2
Ntp2076
Rp2077
(dp2078
g1569
g59
sg1618
F0.5
sg1589
g1592
sg1884
I01
sg1594
I01
sg1653
I0
sg1620
Nsg1885
I4
sg1886
g1730
sg1887
I01
sg1714
I4
sg1621
g1622
sg1888
g1889
sg1890
g0
(g1585
g2
Ntp2079
Rp2080
(dp2081
g1569
g59
sg20
Nsg1589
g1592
sg1594
I01
sg1702
g0
(g1703
g2
Ntp2082
Rp2083
(dp2084
g1707
g1897
sg1710
Nsg1711
g1712
sg1713
g1712
sg1714
F16.0
sg1716
g1712
sg1717
g1712
sbsg1620
Nsg1621
g1622
sg1718
Nsg1579
I01
sg1604
Nsg77
I0
sg84
I0
sg1605
Nsg1565
Nsg1596
Nsg1608
I00
sg1609
(dp2085
sg1720
Nsg1611
I00
sg1612
Nsg1639
Nsg1658
Nsg1721
Nsg1641
Nsg1645
Nsg1648
I00
sg1722
g1694
sg1724
S'1.0'
p2086
sg1726
Nsg1630
Nsg1653
I0
sg1727
Nsg1654
I01
sg1656
Nsg1728
F1.2
sg60
g178
sg1657
Nsg1729
g1730
sg1731
g1732
sbsg1579
I01
sg1604
Nsg1900
I00
sg1605
Nsg1565
g7
sg1596
Nsg1901
I01
sg1608
I00
sg1609
(dp2087
sg1903
(I2
I3
tp2088
sg1611
I00
sg1905
F2.01
sg1612
Nsg1906
I01
sg1639
Nsg1658
g1308
sg1907
g2080
sg1908
g0
(g1585
g2
Ntp2089
Rp2090
(dp2091
g1569
g59
sg20
Nsg1589
g1592
sg1594
I01
sg1702
g0
(g1703
g2
Ntp2092
Rp2093
(dp2094
g1707
g1915
sg1710
Nsg1711
g1712
sg1713
g1712
sg1714
g1916
sg1716
g1712
sg1717
g1712
sbsg1620
Nsg1621
g1622
sg1718
Nsg1579
I01
sg1604
Nsg77
I1
sg84
I0
sg1605
Nsg1565
Nsg1596
Nsg1608
I00
sg1609
(dp2095
sg1720
Nsg1611
I00
sg1612
Nsg1639
Nsg1658
Nsg1721
Nsg1641
Nsg1645
Nsg1648
I00
sg1722
g1693
sg1724
S''
p2096
sg1726
Nsg1630
Nsg1653
I0
sg1727
Nsg1654
I01
sg1656
Nsg1728
F1.2
sg60
g265
sg1657
Nsg1729
g1730
sg1731
g1732
sbsg1645
Nsg1919
I0
sg1648
I00
sg1630
Nsg1920
I4
sg1654
I00
sg1921
g0
(g1922
g2
Ntp2097
Rp2098
(dp2099
g1569
g59
sg1594
I01
sg1926
g1927
sg1589
g1592
sg1928
g1929
sg1930
g0
(g1931
g2
Ntp2100
Rp2101
(dp2102
g1930
g1780
sg1935
Nsg1936
Nsg60
g0
(g78
g2
Ntp2103
Rp2104
(dp2105
g14
I1
sg82
Nsg58
g59
sg41
(dp2106
sbsg1941
I00
sg1942
g1943
sg1944
Nsg1945
g1946
sg1947
g1948
sg1949
g0
(g1950
g2
Ntp2107
Rp2108
(dp2109
g1954
I00
sg1955
Nsg1956
g26
(g27
(I0
tp2110
g29
tp2111
Rp2112
(I1
(I0
I2
tp2113
g36
I00
g59
tp2114
bsg1962
I00
sg1963
F0.1111111111111111
sg1964
I1
sg1965
I00
sbsbsg1620
Nsg1621
g1622
sg1966
g1967
sg1579
I01
sg1968
I0
sg77
g26
(g27
(I0
tp2115
g29
tp2116
Rp2117
(I1
(I2
tp2118
g36
I00
S'\x00\x00\x00\x00\x00\x00\x00\x00\x00\x00\x00\x00\x00\x00\xf0?'
p2119
tp2120
bsg84
g26
(g27
(I0
tp2121
g29
tp2122
Rp2123
(I1
(I2
tp2124
g36
I00
S'\x00\x00\x00\x00\x00\x00\x00\x00\x00\x00\x00\x00\x00\x00\x00\x00'
p2125
tp2126
bsg1630
Nsg1605
Nsg1565
Nsg1596
Nsg1639
Nsg1981
Nsg1608
I00
sg1609
(dp2127
sg1983
Nsg1611
I00
sg1984
I00
sg1612
Nsg1985
Nsg1986
F0.5
sg1987
g1749
sg1988
Nsg1658
g1090
sg1641
Nsg1989
g1990
sg1642
I01
sg1991
g1749
sg1645
Nsg1992
I0
sg1648
I00
sg1993
g26
(g27
(I0
tp2128
g29
tp2129
Rp2130
(I1
(I2
I2
tp2131
g36
I00
S'\x00\x00\x00\x00\x00\x00\x00\x00\x00\x00\x00\x00\x00\x00\x00\x00\x00\x00\x00\x00\x00\x00\x00\x00\x00\x00\x00\x00\x00\x00\xf0?'
p2132
tp2133
bsg1649
g2000
sg2001
g2002
sg1653
I0
sg2003
g2004
sg1604
Nsg2005
I5
sg1654
I01
sg1656
F1.0
sg2006
g2007
sg2008
I00
sg60
g182
sg2009
I00
sg1657
Nsg1729
g1730
sg2010
g2011
sg1638
F0.5
sg1949
g0
(g1950
g2
Ntp2134
Rp2135
(dp2136
g1954
I00
sg1955
Nsg1956
g2130
sg1962
I00
sg1963
F0.1111111111111111
sg1964
I180
sg1965
I00
sbsbsg1656
Nsg1641
Nsg2015
g0
(g1922
g2
Ntp2137
Rp2138
(dp2139
g1569
g59
sg1594
I01
sg1926
g2019
sg1589
g1592
sg1928
g2020
sg1930
g0
(g1931
g2
Ntp2140
Rp2141
(dp2142
g1930
I3
sg1935
Nsg1936
F1.0
sg60
g0
(g158
g2
Ntp2143
Rp2144
(dp2145
g14
I2
sg82
Nsg70
g26
(g27
(I0
tp2146
g29
tp2147
Rp2148
(I1
(I3
I3
tp2149
g36
I00
S'\x00\x00\x00\x00\x00\x00\xf0?\x00\x00\x00\x00\x00\x00\x00\x00\x00\x00\x00\x00\x00\x00\x00\x00\x00\x00\x00\x00\x00\x00\x00\x00\x00\x00\x00\x00\x00\x00\xf0\xbf\x00\x00\x00\x00\x00\x00\x00\x00\x00\x00\x00\x00\x00\x00\x00\x00\x00\x00\x00\x00\x00\x00\x00\x00\x00\x00\x00\x00\x00\x00\xf0?'
p2150
tp2151
bsg58
g59
sg41
(dp2152
sbsg1941
I00
sg1942
g1943
sg1944
Nsg1945
g1946
sg1947
g1948
sg1949
g2035
sbsg1620
Nsg1621
g1622
sg1966
g2043
sg1579
I01
sg1968
I0
sg1630
Nsg1605
Nsg1565
Nsg1596
Nsg1639
Nsg1981
Nsg1608
I00
sg1609
(dp2153
sg1611
I00
sg1612
Nsg1983
Nsg1986
F0.5
sg1987
g1749
sg1988
Nsg1658
Nsg1641
Nsg1989
g1990
sg1642
I01
sg1991
g1749
sg1645
Nsg1992
I4
sg1648
I00
sg1649
g1780
sg2001
(I0
tp2154
sg1653
I0
sg2003
g2004
sg1604
Nsg2005
I5
sg1654
I01
sg1656
Nsg2006
g2046
sg2008
I01
sg60
g182
sg2009
I01
sg2047
F2.01
sg1657
Nsg1729
g1730
sg2010
g2048
sg1638
F1.0
sbsg60
Nsg2049
g1916
sg2050
S'xtick'
p2155
sg1657
Nsg1729
g1730
sg2052
g0
(g1922
g2
Ntp2156
Rp2157
(dp2158
g1569
g59
sg1594
I01
sg1926
g2056
sg1589
g1592
sg1928
g2057
sg1930
g0
(g1931
g2
Ntp2159
Rp2160
(dp2161
g1930
I2
sg1935
Nsg1936
F1.0
sg60
g0
(g158
g2
Ntp2162
Rp2163
(dp2164
g14
I2
sg82
Nsg70
g26
(g27
(I0
tp2165
g29
tp2166
Rp2167
(I1
(I3
I3
tp2168
g36
I00
S'\x00\x00\x00\x00\x00\x00\xf0?\x00\x00\x00\x00\x00\x00\x00\x00\x00\x00\x00\x00\x00\x00\x00\x00\x00\x00\x00\x00\x00\x00\x00\x00\x00\x00\x00\x00\x00\x00\xf0?\x00\x00\x00\x00\x00\x00\x00\x00\x00\x00\x00\x00\x00\x00\x00\x00\x00\x00\x00\x00\x00\x00\x00\x00\x00\x00\x00\x00\x00\x00\xf0?'
p2169
tp2170
bsg58
g59
sg41
(dp2171
sbsg1941
I00
sg1942
g1943
sg1944
Nsg1945
g1946
sg1947
g1948
sg1949
g2035
sbsg1620
Nsg1621
g1622
sg1966
g2071
sg1579
I01
sg1968
I0
sg1630
Nsg1605
Nsg1565
Nsg1596
Nsg1639
Nsg1981
Nsg1608
I00
sg1609
(dp2172
sg1611
I00
sg1612
Nsg1983
Nsg1986
F0.5
sg1987
g1749
sg1988
Nsg1658
Nsg1641
Nsg1989
g1990
sg1642
I01
sg1991
g1749
sg1645
Nsg1992
I4
sg1648
I00
sg1649
g1780
sg2001
(I0
tp2173
sg1653
I0
sg2003
g2004
sg1604
Nsg2005
I5
sg1654
I01
sg1656
Nsg2006
g2074
sg2008
I01
sg60
g182
sg2009
I01
sg2047
F2.01
sg1657
Nsg1729
g1730
sg2010
g2075
sg1638
F1.0
sbsbag0
(g1880
g2
Ntp2174
Rp2175
(dp2176
g1569
g59
sg1618
F0.5
sg1589
g1592
sg1884
I01
sg1594
I01
sg1653
I0
sg1620
Nsg1885
I4
sg1886
g1730
sg1887
I01
sg1714
I4
sg1621
g1622
sg1888
g1889
sg1890
g0
(g1585
g2
Ntp2177
Rp2178
(dp2179
g1569
g59
sg20
Nsg1589
g1592
sg1594
I01
sg1702
g0
(g1703
g2
Ntp2180
Rp2181
(dp2182
g1707
g1897
sg1710
Nsg1711
g1712
sg1713
g1712
sg1714
F16.0
sg1716
g1712
sg1717
g1712
sbsg1620
Nsg1621
g1622
sg1718
Nsg1579
I01
sg1604
Nsg77
I0
sg84
I0
sg1605
Nsg1565
Nsg1596
Nsg1608
I00
sg1609
(dp2183
sg1720
Nsg1611
I00
sg1612
Nsg1639
Nsg1658
Nsg1721
Nsg1641
Nsg1645
Nsg1648
I00
sg1722
g1694
sg1724
S'2.0'
p2184
sg1726
Nsg1630
Nsg1653
I0
sg1727
Nsg1654
I01
sg1656
Nsg1728
F1.2
sg60
g178
sg1657
Nsg1729
g1730
sg1731
g1732
sbsg1579
I01
sg1604
Nsg1900
I00
sg1605
Nsg1565
g7
sg1596
Nsg1901
I01
sg1608
I00
sg1609
(dp2185
sg1903
(I2
I3
tp2186
sg1611
I00
sg1905
F2.01
sg1612
Nsg1906
I01
sg1639
Nsg1658
Nsg1907
g2178
sg1908
g0
(g1585
g2
Ntp2187
Rp2188
(dp2189
g1569
g59
sg20
Nsg1589
g1592
sg1594
I01
sg1702
g0
(g1703
g2
Ntp2190
Rp2191
(dp2192
g1707
g1915
sg1710
Nsg1711
g1712
sg1713
g1712
sg1714
g1916
sg1716
g1712
sg1717
g1712
sbsg1620
Nsg1621
g1622
sg1718
Nsg1579
I01
sg1604
Nsg77
I1
sg84
I0
sg1605
Nsg1565
Nsg1596
Nsg1608
I00
sg1609
(dp2193
sg1720
Nsg1611
I00
sg1612
Nsg1639
Nsg1658
Nsg1721
Nsg1641
Nsg1645
Nsg1648
I00
sg1722
g1693
sg1724
S''
p2194
sg1726
Nsg1630
Nsg1653
I0
sg1727
Nsg1654
I01
sg1656
Nsg1728
F1.2
sg60
g265
sg1657
Nsg1729
g1730
sg1731
g1732
sbsg1645
Nsg1919
I0
sg1648
I00
sg1630
Nsg1920
I4
sg1654
I00
sg1921
g0
(g1922
g2
Ntp2195
Rp2196
(dp2197
g1569
g59
sg1594
I01
sg1926
g1927
sg1589
g1592
sg1928
g1929
sg1930
g0
(g1931
g2
Ntp2198
Rp2199
(dp2200
g1930
g1780
sg1935
Nsg1936
Nsg60
g0
(g78
g2
Ntp2201
Rp2202
(dp2203
g14
I1
sg82
Nsg58
g59
sg41
(dp2204
sbsg1941
I00
sg1942
g1943
sg1944
Nsg1945
g1946
sg1947
g1948
sg1949
g0
(g1950
g2
Ntp2205
Rp2206
(dp2207
g1954
I00
sg1955
Nsg1956
g26
(g27
(I0
tp2208
g29
tp2209
Rp2210
(I1
(I0
I2
tp2211
g36
I00
g59
tp2212
bsg1962
I00
sg1963
F0.1111111111111111
sg1964
I1
sg1965
I00
sbsbsg1620
Nsg1621
g1622
sg1966
g1967
sg1579
I01
sg1968
I0
sg77
g26
(g27
(I0
tp2213
g29
tp2214
Rp2215
(I1
(I2
tp2216
g36
I00
S'\x00\x00\x00\x00\x00\x00\x00\x00\x00\x00\x00\x00\x00\x00\xf0?'
p2217
tp2218
bsg84
g26
(g27
(I0
tp2219
g29
tp2220
Rp2221
(I1
(I2
tp2222
g36
I00
S'\x00\x00\x00\x00\x00\x00\x00\x00\x00\x00\x00\x00\x00\x00\x00\x00'
p2223
tp2224
bsg1630
Nsg1605
Nsg1565
Nsg1596
Nsg1639
Nsg1981
Nsg1608
I00
sg1609
(dp2225
sg1983
Nsg1611
I00
sg1984
I00
sg1612
Nsg1985
Nsg1986
F0.5
sg1987
g1749
sg1988
Nsg1658
g1090
sg1641
Nsg1989
g1990
sg1642
I01
sg1991
g1749
sg1645
Nsg1992
I0
sg1648
I00
sg1993
g26
(g27
(I0
tp2226
g29
tp2227
Rp2228
(I1
(I2
I2
tp2229
g36
I00
S'\x00\x00\x00\x00\x00\x00\x00\x00\x00\x00\x00\x00\x00\x00\x00\x00\x00\x00\x00\x00\x00\x00\x00\x00\x00\x00\x00\x00\x00\x00\xf0?'
p2230
tp2231
bsg1649
g2000
sg2001
g2002
sg1653
I0
sg2003
g2004
sg1604
Nsg2005
I5
sg1654
I01
sg1656
F1.0
sg2006
g2007
sg2008
I00
sg60
g182
sg2009
I00
sg1657
Nsg1729
g1730
sg2010
g2011
sg1638
F0.5
sg1949
g0
(g1950
g2
Ntp2232
Rp2233
(dp2234
g1954
I00
sg1955
Nsg1956
g2228
sg1962
I00
sg1963
F0.1111111111111111
sg1964
I180
sg1965
I00
sbsbsg1656
Nsg1641
Nsg2015
g0
(g1922
g2
Ntp2235
Rp2236
(dp2237
g1569
g59
sg1594
I01
sg1926
g2019
sg1589
g1592
sg1928
g2020
sg1930
g0
(g1931
g2
Ntp2238
Rp2239
(dp2240
g1930
I3
sg1935
Nsg1936
F1.0
sg60
g0
(g158
g2
Ntp2241
Rp2242
(dp2243
g14
I2
sg82
Nsg70
g26
(g27
(I0
tp2244
g29
tp2245
Rp2246
(I1
(I3
I3
tp2247
g36
I00
S'\x00\x00\x00\x00\x00\x00\xf0?\x00\x00\x00\x00\x00\x00\x00\x00\x00\x00\x00\x00\x00\x00\x00\x00\x00\x00\x00\x00\x00\x00\x00\x00\x00\x00\x00\x00\x00\x00\xf0\xbf\x00\x00\x00\x00\x00\x00\x00\x00\x00\x00\x00\x00\x00\x00\x00\x00\x00\x00\x00\x00\x00\x00\x00\x00\x00\x00\x00\x00\x00\x00\xf0?'
p2248
tp2249
bsg58
g59
sg41
(dp2250
sbsg1941
I00
sg1942
g1943
sg1944
Nsg1945
g1946
sg1947
g1948
sg1949
g2035
sbsg1620
Nsg1621
g1622
sg1966
g2043
sg1579
I01
sg1968
I0
sg1630
Nsg1605
Nsg1565
Nsg1596
Nsg1639
Nsg1981
Nsg1608
I00
sg1609
(dp2251
sg1611
I00
sg1612
Nsg1983
Nsg1986
F0.5
sg1987
g1749
sg1988
Nsg1658
Nsg1641
Nsg1989
g1990
sg1642
I01
sg1991
g1749
sg1645
Nsg1992
I4
sg1648
I00
sg1649
g1780
sg2001
(I0
tp2252
sg1653
I0
sg2003
g2004
sg1604
Nsg2005
I5
sg1654
I01
sg1656
Nsg2006
g2046
sg2008
I01
sg60
g182
sg2009
I01
sg2047
F2.01
sg1657
Nsg1729
g1730
sg2010
g2048
sg1638
F1.0
sbsg60
Nsg2049
g1916
sg2050
S'xtick'
p2253
sg1657
Nsg1729
g1730
sg2052
g0
(g1922
g2
Ntp2254
Rp2255
(dp2256
g1569
g59
sg1594
I01
sg1926
g2056
sg1589
g1592
sg1928
g2057
sg1930
g0
(g1931
g2
Ntp2257
Rp2258
(dp2259
g1930
I2
sg1935
Nsg1936
F1.0
sg60
g0
(g158
g2
Ntp2260
Rp2261
(dp2262
g14
I2
sg82
Nsg70
g26
(g27
(I0
tp2263
g29
tp2264
Rp2265
(I1
(I3
I3
tp2266
g36
I00
S'\x00\x00\x00\x00\x00\x00\xf0?\x00\x00\x00\x00\x00\x00\x00\x00\x00\x00\x00\x00\x00\x00\x00\x00\x00\x00\x00\x00\x00\x00\x00\x00\x00\x00\x00\x00\x00\x00\xf0?\x00\x00\x00\x00\x00\x00\x00\x00\x00\x00\x00\x00\x00\x00\x00\x00\x00\x00\x00\x00\x00\x00\x00\x00\x00\x00\x00\x00\x00\x00\xf0?'
p2267
tp2268
bsg58
g59
sg41
(dp2269
sbsg1941
I00
sg1942
g1943
sg1944
Nsg1945
g1946
sg1947
g1948
sg1949
g2035
sbsg1620
Nsg1621
g1622
sg1966
g2071
sg1579
I01
sg1968
I0
sg1630
Nsg1605
Nsg1565
Nsg1596
Nsg1639
Nsg1981
Nsg1608
I00
sg1609
(dp2270
sg1611
I00
sg1612
Nsg1983
Nsg1986
F0.5
sg1987
g1749
sg1988
Nsg1658
Nsg1641
Nsg1989
g1990
sg1642
I01
sg1991
g1749
sg1645
Nsg1992
I4
sg1648
I00
sg1649
g1780
sg2001
(I0
tp2271
sg1653
I0
sg2003
g2004
sg1604
Nsg2005
I5
sg1654
I01
sg1656
Nsg2006
g2074
sg2008
I01
sg60
g182
sg2009
I01
sg2047
F2.01
sg1657
Nsg1729
g1730
sg2010
g2075
sg1638
F1.0
sbsbag0
(g1880
g2
Ntp2272
Rp2273
(dp2274
g1569
g59
sg1618
F0.5
sg1589
g1592
sg1884
I01
sg1594
I01
sg1653
I0
sg1620
Nsg1885
I4
sg1886
g1730
sg1887
I01
sg1714
I4
sg1621
g1622
sg1888
g1889
sg1890
g0
(g1585
g2
Ntp2275
Rp2276
(dp2277
g1569
g59
sg20
Nsg1589
g1592
sg1594
I01
sg1702
g0
(g1703
g2
Ntp2278
Rp2279
(dp2280
g1707
g1897
sg1710
Nsg1711
g1712
sg1713
g1712
sg1714
F16.0
sg1716
g1712
sg1717
g1712
sbsg1620
Nsg1621
g1622
sg1718
Nsg1579
I01
sg1604
Nsg77
I0
sg84
I0
sg1605
Nsg1565
Nsg1596
Nsg1608
I00
sg1609
(dp2281
sg1720
Nsg1611
I00
sg1612
Nsg1639
Nsg1658
Nsg1721
Nsg1641
Nsg1645
Nsg1648
I00
sg1722
g1694
sg1724
S'3.0'
p2282
sg1726
Nsg1630
Nsg1653
I0
sg1727
Nsg1654
I01
sg1656
Nsg1728
F1.2
sg60
g178
sg1657
Nsg1729
g1730
sg1731
g1732
sbsg1579
I01
sg1604
Nsg1900
I00
sg1605
Nsg1565
g7
sg1596
Nsg1901
I01
sg1608
I00
sg1609
(dp2283
sg1903
(I2
I3
tp2284
sg1611
I00
sg1905
F2.01
sg1612
Nsg1906
I01
sg1639
Nsg1658
Nsg1907
g2276
sg1908
g0
(g1585
g2
Ntp2285
Rp2286
(dp2287
g1569
g59
sg20
Nsg1589
g1592
sg1594
I01
sg1702
g0
(g1703
g2
Ntp2288
Rp2289
(dp2290
g1707
g1915
sg1710
Nsg1711
g1712
sg1713
g1712
sg1714
g1916
sg1716
g1712
sg1717
g1712
sbsg1620
Nsg1621
g1622
sg1718
Nsg1579
I01
sg1604
Nsg77
I1
sg84
I0
sg1605
Nsg1565
Nsg1596
Nsg1608
I00
sg1609
(dp2291
sg1720
Nsg1611
I00
sg1612
Nsg1639
Nsg1658
Nsg1721
Nsg1641
Nsg1645
Nsg1648
I00
sg1722
g1693
sg1724
S''
p2292
sg1726
Nsg1630
Nsg1653
I0
sg1727
Nsg1654
I01
sg1656
Nsg1728
F1.2
sg60
g265
sg1657
Nsg1729
g1730
sg1731
g1732
sbsg1645
Nsg1919
I0
sg1648
I00
sg1630
Nsg1920
I4
sg1654
I00
sg1921
g0
(g1922
g2
Ntp2293
Rp2294
(dp2295
g1569
g59
sg1594
I01
sg1926
g1927
sg1589
g1592
sg1928
g1929
sg1930
g0
(g1931
g2
Ntp2296
Rp2297
(dp2298
g1930
g1780
sg1935
Nsg1936
Nsg60
g0
(g78
g2
Ntp2299
Rp2300
(dp2301
g14
I1
sg82
Nsg58
g59
sg41
(dp2302
sbsg1941
I00
sg1942
g1943
sg1944
Nsg1945
g1946
sg1947
g1948
sg1949
g0
(g1950
g2
Ntp2303
Rp2304
(dp2305
g1954
I00
sg1955
Nsg1956
g26
(g27
(I0
tp2306
g29
tp2307
Rp2308
(I1
(I0
I2
tp2309
g36
I00
g59
tp2310
bsg1962
I00
sg1963
F0.1111111111111111
sg1964
I1
sg1965
I00
sbsbsg1620
Nsg1621
g1622
sg1966
g1967
sg1579
I01
sg1968
I0
sg77
g26
(g27
(I0
tp2311
g29
tp2312
Rp2313
(I1
(I2
tp2314
g36
I00
S'\x00\x00\x00\x00\x00\x00\x00\x00\x00\x00\x00\x00\x00\x00\xf0?'
p2315
tp2316
bsg84
g26
(g27
(I0
tp2317
g29
tp2318
Rp2319
(I1
(I2
tp2320
g36
I00
S'\x00\x00\x00\x00\x00\x00\x00\x00\x00\x00\x00\x00\x00\x00\x00\x00'
p2321
tp2322
bsg1630
Nsg1605
Nsg1565
Nsg1596
Nsg1639
Nsg1981
Nsg1608
I00
sg1609
(dp2323
sg1983
Nsg1611
I00
sg1984
I00
sg1612
Nsg1985
Nsg1986
F0.5
sg1987
g1749
sg1988
Nsg1658
g1090
sg1641
Nsg1989
g1990
sg1642
I01
sg1991
g1749
sg1645
Nsg1992
I0
sg1648
I00
sg1993
g26
(g27
(I0
tp2324
g29
tp2325
Rp2326
(I1
(I2
I2
tp2327
g36
I00
S'\x00\x00\x00\x00\x00\x00\x00\x00\x00\x00\x00\x00\x00\x00\x00\x00\x00\x00\x00\x00\x00\x00\x00\x00\x00\x00\x00\x00\x00\x00\xf0?'
p2328
tp2329
bsg1649
g2000
sg2001
g2002
sg1653
I0
sg2003
g2004
sg1604
Nsg2005
I5
sg1654
I01
sg1656
F1.0
sg2006
g2007
sg2008
I00
sg60
g182
sg2009
I00
sg1657
Nsg1729
g1730
sg2010
g2011
sg1638
F0.5
sg1949
g0
(g1950
g2
Ntp2330
Rp2331
(dp2332
g1954
I00
sg1955
Nsg1956
g2326
sg1962
I00
sg1963
F0.1111111111111111
sg1964
I180
sg1965
I00
sbsbsg1656
Nsg1641
Nsg2015
g0
(g1922
g2
Ntp2333
Rp2334
(dp2335
g1569
g59
sg1594
I01
sg1926
g2019
sg1589
g1592
sg1928
g2020
sg1930
g0
(g1931
g2
Ntp2336
Rp2337
(dp2338
g1930
I3
sg1935
Nsg1936
F1.0
sg60
g0
(g158
g2
Ntp2339
Rp2340
(dp2341
g14
I2
sg82
Nsg70
g26
(g27
(I0
tp2342
g29
tp2343
Rp2344
(I1
(I3
I3
tp2345
g36
I00
S'\x00\x00\x00\x00\x00\x00\xf0?\x00\x00\x00\x00\x00\x00\x00\x00\x00\x00\x00\x00\x00\x00\x00\x00\x00\x00\x00\x00\x00\x00\x00\x00\x00\x00\x00\x00\x00\x00\xf0\xbf\x00\x00\x00\x00\x00\x00\x00\x00\x00\x00\x00\x00\x00\x00\x00\x00\x00\x00\x00\x00\x00\x00\x00\x00\x00\x00\x00\x00\x00\x00\xf0?'
p2346
tp2347
bsg58
g59
sg41
(dp2348
sbsg1941
I00
sg1942
g1943
sg1944
Nsg1945
g1946
sg1947
g1948
sg1949
g2035
sbsg1620
Nsg1621
g1622
sg1966
g2043
sg1579
I01
sg1968
I0
sg1630
Nsg1605
Nsg1565
Nsg1596
Nsg1639
Nsg1981
Nsg1608
I00
sg1609
(dp2349
sg1611
I00
sg1612
Nsg1983
Nsg1986
F0.5
sg1987
g1749
sg1988
Nsg1658
Nsg1641
Nsg1989
g1990
sg1642
I01
sg1991
g1749
sg1645
Nsg1992
I4
sg1648
I00
sg1649
g1780
sg2001
(I0
tp2350
sg1653
I0
sg2003
g2004
sg1604
Nsg2005
I5
sg1654
I01
sg1656
Nsg2006
g2046
sg2008
I01
sg60
g182
sg2009
I01
sg2047
F2.01
sg1657
Nsg1729
g1730
sg2010
g2048
sg1638
F1.0
sbsg60
Nsg2049
g1916
sg2050
S'xtick'
p2351
sg1657
Nsg1729
g1730
sg2052
g0
(g1922
g2
Ntp2352
Rp2353
(dp2354
g1569
g59
sg1594
I01
sg1926
g2056
sg1589
g1592
sg1928
g2057
sg1930
g0
(g1931
g2
Ntp2355
Rp2356
(dp2357
g1930
I2
sg1935
Nsg1936
F1.0
sg60
g0
(g158
g2
Ntp2358
Rp2359
(dp2360
g14
I2
sg82
Nsg70
g26
(g27
(I0
tp2361
g29
tp2362
Rp2363
(I1
(I3
I3
tp2364
g36
I00
S'\x00\x00\x00\x00\x00\x00\xf0?\x00\x00\x00\x00\x00\x00\x00\x00\x00\x00\x00\x00\x00\x00\x00\x00\x00\x00\x00\x00\x00\x00\x00\x00\x00\x00\x00\x00\x00\x00\xf0?\x00\x00\x00\x00\x00\x00\x00\x00\x00\x00\x00\x00\x00\x00\x00\x00\x00\x00\x00\x00\x00\x00\x00\x00\x00\x00\x00\x00\x00\x00\xf0?'
p2365
tp2366
bsg58
g59
sg41
(dp2367
sbsg1941
I00
sg1942
g1943
sg1944
Nsg1945
g1946
sg1947
g1948
sg1949
g2035
sbsg1620
Nsg1621
g1622
sg1966
g2071
sg1579
I01
sg1968
I0
sg1630
Nsg1605
Nsg1565
Nsg1596
Nsg1639
Nsg1981
Nsg1608
I00
sg1609
(dp2368
sg1611
I00
sg1612
Nsg1983
Nsg1986
F0.5
sg1987
g1749
sg1988
Nsg1658
Nsg1641
Nsg1989
g1990
sg1642
I01
sg1991
g1749
sg1645
Nsg1992
I4
sg1648
I00
sg1649
g1780
sg2001
(I0
tp2369
sg1653
I0
sg2003
g2004
sg1604
Nsg2005
I5
sg1654
I01
sg1656
Nsg2006
g2074
sg2008
I01
sg60
g182
sg2009
I01
sg2047
F2.01
sg1657
Nsg1729
g1730
sg2010
g2075
sg1638
F1.0
sbsbag0
(g1880
g2
Ntp2370
Rp2371
(dp2372
g1569
g59
sg1618
F0.5
sg1589
g1592
sg1884
I01
sg1594
I01
sg1653
I0
sg1620
Nsg1885
I4
sg1886
g1730
sg1887
I01
sg1714
I4
sg1621
g1622
sg1888
g1889
sg1890
g0
(g1585
g2
Ntp2373
Rp2374
(dp2375
g1569
g59
sg20
Nsg1589
g1592
sg1594
I01
sg1702
g0
(g1703
g2
Ntp2376
Rp2377
(dp2378
g1707
g1897
sg1710
Nsg1711
g1712
sg1713
g1712
sg1714
F16.0
sg1716
g1712
sg1717
g1712
sbsg1620
Nsg1621
g1622
sg1718
Nsg1579
I01
sg1604
Nsg77
I0
sg84
I0
sg1605
Nsg1565
Nsg1596
Nsg1608
I00
sg1609
(dp2379
sg1720
Nsg1611
I00
sg1612
Nsg1639
Nsg1658
Nsg1721
Nsg1641
Nsg1645
Nsg1648
I00
sg1722
g1694
sg1724
S'4.0'
p2380
sg1726
Nsg1630
Nsg1653
I0
sg1727
Nsg1654
I01
sg1656
Nsg1728
F1.2
sg60
g178
sg1657
Nsg1729
g1730
sg1731
g1732
sbsg1579
I01
sg1604
Nsg1900
I00
sg1605
Nsg1565
g7
sg1596
Nsg1901
I01
sg1608
I00
sg1609
(dp2381
sg1903
(I2
I3
tp2382
sg1611
I00
sg1905
F2.01
sg1612
Nsg1906
I01
sg1639
Nsg1658
Nsg1907
g2374
sg1908
g0
(g1585
g2
Ntp2383
Rp2384
(dp2385
g1569
g59
sg20
Nsg1589
g1592
sg1594
I01
sg1702
g0
(g1703
g2
Ntp2386
Rp2387
(dp2388
g1707
g1915
sg1710
Nsg1711
g1712
sg1713
g1712
sg1714
g1916
sg1716
g1712
sg1717
g1712
sbsg1620
Nsg1621
g1622
sg1718
Nsg1579
I01
sg1604
Nsg77
I1
sg84
I0
sg1605
Nsg1565
Nsg1596
Nsg1608
I00
sg1609
(dp2389
sg1720
Nsg1611
I00
sg1612
Nsg1639
Nsg1658
Nsg1721
Nsg1641
Nsg1645
Nsg1648
I00
sg1722
g1693
sg1724
S''
p2390
sg1726
Nsg1630
Nsg1653
I0
sg1727
Nsg1654
I01
sg1656
Nsg1728
F1.2
sg60
g265
sg1657
Nsg1729
g1730
sg1731
g1732
sbsg1645
Nsg1919
I0
sg1648
I00
sg1630
Nsg1920
I4
sg1654
I00
sg1921
g0
(g1922
g2
Ntp2391
Rp2392
(dp2393
g1569
g59
sg1594
I01
sg1926
g1927
sg1589
g1592
sg1928
g1929
sg1930
g0
(g1931
g2
Ntp2394
Rp2395
(dp2396
g1930
g1780
sg1935
Nsg1936
Nsg60
g0
(g78
g2
Ntp2397
Rp2398
(dp2399
g14
I1
sg82
Nsg58
g59
sg41
(dp2400
sbsg1941
I00
sg1942
g1943
sg1944
Nsg1945
g1946
sg1947
g1948
sg1949
g0
(g1950
g2
Ntp2401
Rp2402
(dp2403
g1954
I00
sg1955
Nsg1956
g26
(g27
(I0
tp2404
g29
tp2405
Rp2406
(I1
(I0
I2
tp2407
g36
I00
g59
tp2408
bsg1962
I00
sg1963
F0.1111111111111111
sg1964
I1
sg1965
I00
sbsbsg1620
Nsg1621
g1622
sg1966
g1967
sg1579
I01
sg1968
I0
sg77
g26
(g27
(I0
tp2409
g29
tp2410
Rp2411
(I1
(I2
tp2412
g36
I00
S'\x00\x00\x00\x00\x00\x00\x00\x00\x00\x00\x00\x00\x00\x00\xf0?'
p2413
tp2414
bsg84
g26
(g27
(I0
tp2415
g29
tp2416
Rp2417
(I1
(I2
tp2418
g36
I00
S'\x00\x00\x00\x00\x00\x00\x00\x00\x00\x00\x00\x00\x00\x00\x00\x00'
p2419
tp2420
bsg1630
Nsg1605
Nsg1565
Nsg1596
Nsg1639
Nsg1981
Nsg1608
I00
sg1609
(dp2421
sg1983
Nsg1611
I00
sg1984
I00
sg1612
Nsg1985
Nsg1986
F0.5
sg1987
g1749
sg1988
Nsg1658
g1090
sg1641
Nsg1989
g1990
sg1642
I01
sg1991
g1749
sg1645
Nsg1992
I0
sg1648
I00
sg1993
g26
(g27
(I0
tp2422
g29
tp2423
Rp2424
(I1
(I2
I2
tp2425
g36
I00
S'\x00\x00\x00\x00\x00\x00\x00\x00\x00\x00\x00\x00\x00\x00\x00\x00\x00\x00\x00\x00\x00\x00\x00\x00\x00\x00\x00\x00\x00\x00\xf0?'
p2426
tp2427
bsg1649
g2000
sg2001
g2002
sg1653
I0
sg2003
g2004
sg1604
Nsg2005
I5
sg1654
I01
sg1656
F1.0
sg2006
g2007
sg2008
I00
sg60
g182
sg2009
I00
sg1657
Nsg1729
g1730
sg2010
g2011
sg1638
F0.5
sg1949
g0
(g1950
g2
Ntp2428
Rp2429
(dp2430
g1954
I00
sg1955
Nsg1956
g2424
sg1962
I00
sg1963
F0.1111111111111111
sg1964
I180
sg1965
I00
sbsbsg1656
Nsg1641
Nsg2015
g0
(g1922
g2
Ntp2431
Rp2432
(dp2433
g1569
g59
sg1594
I01
sg1926
g2019
sg1589
g1592
sg1928
g2020
sg1930
g0
(g1931
g2
Ntp2434
Rp2435
(dp2436
g1930
I3
sg1935
Nsg1936
F1.0
sg60
g0
(g158
g2
Ntp2437
Rp2438
(dp2439
g14
I2
sg82
Nsg70
g26
(g27
(I0
tp2440
g29
tp2441
Rp2442
(I1
(I3
I3
tp2443
g36
I00
S'\x00\x00\x00\x00\x00\x00\xf0?\x00\x00\x00\x00\x00\x00\x00\x00\x00\x00\x00\x00\x00\x00\x00\x00\x00\x00\x00\x00\x00\x00\x00\x00\x00\x00\x00\x00\x00\x00\xf0\xbf\x00\x00\x00\x00\x00\x00\x00\x00\x00\x00\x00\x00\x00\x00\x00\x00\x00\x00\x00\x00\x00\x00\x00\x00\x00\x00\x00\x00\x00\x00\xf0?'
p2444
tp2445
bsg58
g59
sg41
(dp2446
sbsg1941
I00
sg1942
g1943
sg1944
Nsg1945
g1946
sg1947
g1948
sg1949
g2035
sbsg1620
Nsg1621
g1622
sg1966
g2043
sg1579
I01
sg1968
I0
sg1630
Nsg1605
Nsg1565
Nsg1596
Nsg1639
Nsg1981
Nsg1608
I00
sg1609
(dp2447
sg1611
I00
sg1612
Nsg1983
Nsg1986
F0.5
sg1987
g1749
sg1988
Nsg1658
Nsg1641
Nsg1989
g1990
sg1642
I01
sg1991
g1749
sg1645
Nsg1992
I4
sg1648
I00
sg1649
g1780
sg2001
(I0
tp2448
sg1653
I0
sg2003
g2004
sg1604
Nsg2005
I5
sg1654
I01
sg1656
Nsg2006
g2046
sg2008
I01
sg60
g182
sg2009
I01
sg2047
F2.01
sg1657
Nsg1729
g1730
sg2010
g2048
sg1638
F1.0
sbsg60
Nsg2049
g1916
sg2050
S'xtick'
p2449
sg1657
Nsg1729
g1730
sg2052
g0
(g1922
g2
Ntp2450
Rp2451
(dp2452
g1569
g59
sg1594
I01
sg1926
g2056
sg1589
g1592
sg1928
g2057
sg1930
g0
(g1931
g2
Ntp2453
Rp2454
(dp2455
g1930
I2
sg1935
Nsg1936
F1.0
sg60
g0
(g158
g2
Ntp2456
Rp2457
(dp2458
g14
I2
sg82
Nsg70
g26
(g27
(I0
tp2459
g29
tp2460
Rp2461
(I1
(I3
I3
tp2462
g36
I00
S'\x00\x00\x00\x00\x00\x00\xf0?\x00\x00\x00\x00\x00\x00\x00\x00\x00\x00\x00\x00\x00\x00\x00\x00\x00\x00\x00\x00\x00\x00\x00\x00\x00\x00\x00\x00\x00\x00\xf0?\x00\x00\x00\x00\x00\x00\x00\x00\x00\x00\x00\x00\x00\x00\x00\x00\x00\x00\x00\x00\x00\x00\x00\x00\x00\x00\x00\x00\x00\x00\xf0?'
p2463
tp2464
bsg58
g59
sg41
(dp2465
sbsg1941
I00
sg1942
g1943
sg1944
Nsg1945
g1946
sg1947
g1948
sg1949
g2035
sbsg1620
Nsg1621
g1622
sg1966
g2071
sg1579
I01
sg1968
I0
sg1630
Nsg1605
Nsg1565
Nsg1596
Nsg1639
Nsg1981
Nsg1608
I00
sg1609
(dp2466
sg1611
I00
sg1612
Nsg1983
Nsg1986
F0.5
sg1987
g1749
sg1988
Nsg1658
Nsg1641
Nsg1989
g1990
sg1642
I01
sg1991
g1749
sg1645
Nsg1992
I4
sg1648
I00
sg1649
g1780
sg2001
(I0
tp2467
sg1653
I0
sg2003
g2004
sg1604
Nsg2005
I5
sg1654
I01
sg1656
Nsg2006
g2074
sg2008
I01
sg60
g182
sg2009
I01
sg2047
F2.01
sg1657
Nsg1729
g1730
sg2010
g2075
sg1638
F1.0
sbsbag0
(g1880
g2
Ntp2468
Rp2469
(dp2470
g1569
g59
sg1618
F0.5
sg1589
g1592
sg1884
I01
sg1594
I01
sg1653
I0
sg1620
Nsg1885
I4
sg1886
g1730
sg1887
I01
sg1714
I4
sg1621
g1622
sg1888
g1889
sg1890
g0
(g1585
g2
Ntp2471
Rp2472
(dp2473
g1569
g59
sg20
Nsg1589
g1592
sg1594
I01
sg1702
g0
(g1703
g2
Ntp2474
Rp2475
(dp2476
g1707
g1897
sg1710
Nsg1711
g1712
sg1713
g1712
sg1714
F16.0
sg1716
g1712
sg1717
g1712
sbsg1620
Nsg1621
g1622
sg1718
Nsg1579
I01
sg1604
Nsg77
I0
sg84
I0
sg1605
Nsg1565
Nsg1596
Nsg1608
I00
sg1609
(dp2477
sg1720
Nsg1611
I00
sg1612
Nsg1639
Nsg1658
Nsg1721
Nsg1641
Nsg1645
Nsg1648
I00
sg1722
g1694
sg1724
S'5.0'
p2478
sg1726
Nsg1630
Nsg1653
I0
sg1727
Nsg1654
I01
sg1656
Nsg1728
F1.2
sg60
g178
sg1657
Nsg1729
g1730
sg1731
g1732
sbsg1579
I01
sg1604
Nsg1900
I00
sg1605
Nsg1565
g7
sg1596
Nsg1901
I01
sg1608
I00
sg1609
(dp2479
sg1903
(I2
I3
tp2480
sg1611
I00
sg1905
F2.01
sg1612
Nsg1906
I01
sg1639
Nsg1658
Nsg1907
g2472
sg1908
g0
(g1585
g2
Ntp2481
Rp2482
(dp2483
g1569
g59
sg20
Nsg1589
g1592
sg1594
I01
sg1702
g0
(g1703
g2
Ntp2484
Rp2485
(dp2486
g1707
g1915
sg1710
Nsg1711
g1712
sg1713
g1712
sg1714
g1916
sg1716
g1712
sg1717
g1712
sbsg1620
Nsg1621
g1622
sg1718
Nsg1579
I01
sg1604
Nsg77
I1
sg84
I0
sg1605
Nsg1565
Nsg1596
Nsg1608
I00
sg1609
(dp2487
sg1720
Nsg1611
I00
sg1612
Nsg1639
Nsg1658
Nsg1721
Nsg1641
Nsg1645
Nsg1648
I00
sg1722
g1693
sg1724
S''
p2488
sg1726
Nsg1630
Nsg1653
I0
sg1727
Nsg1654
I01
sg1656
Nsg1728
F1.2
sg60
g265
sg1657
Nsg1729
g1730
sg1731
g1732
sbsg1645
Nsg1919
I0
sg1648
I00
sg1630
Nsg1920
I4
sg1654
I00
sg1921
g0
(g1922
g2
Ntp2489
Rp2490
(dp2491
g1569
g59
sg1594
I01
sg1926
g1927
sg1589
g1592
sg1928
g1929
sg1930
g0
(g1931
g2
Ntp2492
Rp2493
(dp2494
g1930
g1780
sg1935
Nsg1936
Nsg60
g0
(g78
g2
Ntp2495
Rp2496
(dp2497
g14
I1
sg82
Nsg58
g59
sg41
(dp2498
sbsg1941
I00
sg1942
g1943
sg1944
Nsg1945
g1946
sg1947
g1948
sg1949
g0
(g1950
g2
Ntp2499
Rp2500
(dp2501
g1954
I00
sg1955
Nsg1956
g26
(g27
(I0
tp2502
g29
tp2503
Rp2504
(I1
(I0
I2
tp2505
g36
I00
g59
tp2506
bsg1962
I00
sg1963
F0.1111111111111111
sg1964
I1
sg1965
I00
sbsbsg1620
Nsg1621
g1622
sg1966
g1967
sg1579
I01
sg1968
I0
sg77
g26
(g27
(I0
tp2507
g29
tp2508
Rp2509
(I1
(I2
tp2510
g36
I00
S'\x00\x00\x00\x00\x00\x00\x00\x00\x00\x00\x00\x00\x00\x00\xf0?'
p2511
tp2512
bsg84
g26
(g27
(I0
tp2513
g29
tp2514
Rp2515
(I1
(I2
tp2516
g36
I00
S'\x00\x00\x00\x00\x00\x00\x00\x00\x00\x00\x00\x00\x00\x00\x00\x00'
p2517
tp2518
bsg1630
Nsg1605
Nsg1565
Nsg1596
Nsg1639
Nsg1981
Nsg1608
I00
sg1609
(dp2519
sg1983
Nsg1611
I00
sg1984
I00
sg1612
Nsg1985
Nsg1986
F0.5
sg1987
g1749
sg1988
Nsg1658
g1090
sg1641
Nsg1989
g1990
sg1642
I01
sg1991
g1749
sg1645
Nsg1992
I0
sg1648
I00
sg1993
g26
(g27
(I0
tp2520
g29
tp2521
Rp2522
(I1
(I2
I2
tp2523
g36
I00
S'\x00\x00\x00\x00\x00\x00\x00\x00\x00\x00\x00\x00\x00\x00\x00\x00\x00\x00\x00\x00\x00\x00\x00\x00\x00\x00\x00\x00\x00\x00\xf0?'
p2524
tp2525
bsg1649
g2000
sg2001
g2002
sg1653
I0
sg2003
g2004
sg1604
Nsg2005
I5
sg1654
I01
sg1656
F1.0
sg2006
g2007
sg2008
I00
sg60
g182
sg2009
I00
sg1657
Nsg1729
g1730
sg2010
g2011
sg1638
F0.5
sg1949
g0
(g1950
g2
Ntp2526
Rp2527
(dp2528
g1954
I00
sg1955
Nsg1956
g2522
sg1962
I00
sg1963
F0.1111111111111111
sg1964
I180
sg1965
I00
sbsbsg1656
Nsg1641
Nsg2015
g0
(g1922
g2
Ntp2529
Rp2530
(dp2531
g1569
g59
sg1594
I01
sg1926
g2019
sg1589
g1592
sg1928
g2020
sg1930
g0
(g1931
g2
Ntp2532
Rp2533
(dp2534
g1930
I3
sg1935
Nsg1936
F1.0
sg60
g0
(g158
g2
Ntp2535
Rp2536
(dp2537
g14
I2
sg82
Nsg70
g26
(g27
(I0
tp2538
g29
tp2539
Rp2540
(I1
(I3
I3
tp2541
g36
I00
S'\x00\x00\x00\x00\x00\x00\xf0?\x00\x00\x00\x00\x00\x00\x00\x00\x00\x00\x00\x00\x00\x00\x00\x00\x00\x00\x00\x00\x00\x00\x00\x00\x00\x00\x00\x00\x00\x00\xf0\xbf\x00\x00\x00\x00\x00\x00\x00\x00\x00\x00\x00\x00\x00\x00\x00\x00\x00\x00\x00\x00\x00\x00\x00\x00\x00\x00\x00\x00\x00\x00\xf0?'
p2542
tp2543
bsg58
g59
sg41
(dp2544
sbsg1941
I00
sg1942
g1943
sg1944
Nsg1945
g1946
sg1947
g1948
sg1949
g2035
sbsg1620
Nsg1621
g1622
sg1966
g2043
sg1579
I01
sg1968
I0
sg1630
Nsg1605
Nsg1565
Nsg1596
Nsg1639
Nsg1981
Nsg1608
I00
sg1609
(dp2545
sg1611
I00
sg1612
Nsg1983
Nsg1986
F0.5
sg1987
g1749
sg1988
Nsg1658
Nsg1641
Nsg1989
g1990
sg1642
I01
sg1991
g1749
sg1645
Nsg1992
I4
sg1648
I00
sg1649
g1780
sg2001
(I0
tp2546
sg1653
I0
sg2003
g2004
sg1604
Nsg2005
I5
sg1654
I01
sg1656
Nsg2006
g2046
sg2008
I01
sg60
g182
sg2009
I01
sg2047
F2.01
sg1657
Nsg1729
g1730
sg2010
g2048
sg1638
F1.0
sbsg60
Nsg2049
g1916
sg2050
S'xtick'
p2547
sg1657
Nsg1729
g1730
sg2052
g0
(g1922
g2
Ntp2548
Rp2549
(dp2550
g1569
g59
sg1594
I01
sg1926
g2056
sg1589
g1592
sg1928
g2057
sg1930
g0
(g1931
g2
Ntp2551
Rp2552
(dp2553
g1930
I2
sg1935
Nsg1936
F1.0
sg60
g0
(g158
g2
Ntp2554
Rp2555
(dp2556
g14
I2
sg82
Nsg70
g26
(g27
(I0
tp2557
g29
tp2558
Rp2559
(I1
(I3
I3
tp2560
g36
I00
S'\x00\x00\x00\x00\x00\x00\xf0?\x00\x00\x00\x00\x00\x00\x00\x00\x00\x00\x00\x00\x00\x00\x00\x00\x00\x00\x00\x00\x00\x00\x00\x00\x00\x00\x00\x00\x00\x00\xf0?\x00\x00\x00\x00\x00\x00\x00\x00\x00\x00\x00\x00\x00\x00\x00\x00\x00\x00\x00\x00\x00\x00\x00\x00\x00\x00\x00\x00\x00\x00\xf0?'
p2561
tp2562
bsg58
g59
sg41
(dp2563
sbsg1941
I00
sg1942
g1943
sg1944
Nsg1945
g1946
sg1947
g1948
sg1949
g2035
sbsg1620
Nsg1621
g1622
sg1966
g2071
sg1579
I01
sg1968
I0
sg1630
Nsg1605
Nsg1565
Nsg1596
Nsg1639
Nsg1981
Nsg1608
I00
sg1609
(dp2564
sg1611
I00
sg1612
Nsg1983
Nsg1986
F0.5
sg1987
g1749
sg1988
Nsg1658
Nsg1641
Nsg1989
g1990
sg1642
I01
sg1991
g1749
sg1645
Nsg1992
I4
sg1648
I00
sg1649
g1780
sg2001
(I0
tp2565
sg1653
I0
sg2003
g2004
sg1604
Nsg2005
I5
sg1654
I01
sg1656
Nsg2006
g2074
sg2008
I01
sg60
g182
sg2009
I01
sg2047
F2.01
sg1657
Nsg1729
g1730
sg2010
g2075
sg1638
F1.0
sbsbag0
(g1880
g2
Ntp2566
Rp2567
(dp2568
g1569
g59
sg1618
F0.5
sg1589
g1592
sg1884
I01
sg1594
I01
sg1653
I0
sg1620
Nsg1885
I4
sg1886
g1730
sg1887
I01
sg1714
I4
sg1621
g1622
sg1888
g1889
sg1890
g0
(g1585
g2
Ntp2569
Rp2570
(dp2571
g1569
g59
sg20
Nsg1589
g1592
sg1594
I01
sg1702
g0
(g1703
g2
Ntp2572
Rp2573
(dp2574
g1707
g1897
sg1710
Nsg1711
g1712
sg1713
g1712
sg1714
F16.0
sg1716
g1712
sg1717
g1712
sbsg1620
Nsg1621
g1622
sg1718
Nsg1579
I01
sg1604
Nsg77
I0
sg84
I0
sg1605
Nsg1565
Nsg1596
Nsg1608
I00
sg1609
(dp2575
sg1720
Nsg1611
I00
sg1612
Nsg1639
Nsg1658
Nsg1721
Nsg1641
Nsg1645
Nsg1648
I00
sg1722
g1694
sg1724
S'6.0'
p2576
sg1726
Nsg1630
Nsg1653
I0
sg1727
Nsg1654
I01
sg1656
Nsg1728
F1.2
sg60
g178
sg1657
Nsg1729
g1730
sg1731
g1732
sbsg1579
I01
sg1604
Nsg1900
I00
sg1605
Nsg1565
g7
sg1596
Nsg1901
I01
sg1608
I00
sg1609
(dp2577
sg1903
(I2
I3
tp2578
sg1611
I00
sg1905
F2.01
sg1612
Nsg1906
I01
sg1639
Nsg1658
Nsg1907
g2570
sg1908
g0
(g1585
g2
Ntp2579
Rp2580
(dp2581
g1569
g59
sg20
Nsg1589
g1592
sg1594
I01
sg1702
g0
(g1703
g2
Ntp2582
Rp2583
(dp2584
g1707
g1915
sg1710
Nsg1711
g1712
sg1713
g1712
sg1714
g1916
sg1716
g1712
sg1717
g1712
sbsg1620
Nsg1621
g1622
sg1718
Nsg1579
I01
sg1604
Nsg77
I1
sg84
I0
sg1605
Nsg1565
Nsg1596
Nsg1608
I00
sg1609
(dp2585
sg1720
Nsg1611
I00
sg1612
Nsg1639
Nsg1658
Nsg1721
Nsg1641
Nsg1645
Nsg1648
I00
sg1722
g1693
sg1724
S''
p2586
sg1726
Nsg1630
Nsg1653
I0
sg1727
Nsg1654
I01
sg1656
Nsg1728
F1.2
sg60
g265
sg1657
Nsg1729
g1730
sg1731
g1732
sbsg1645
Nsg1919
I0
sg1648
I00
sg1630
Nsg1920
I4
sg1654
I00
sg1921
g0
(g1922
g2
Ntp2587
Rp2588
(dp2589
g1569
g59
sg1594
I01
sg1926
g1927
sg1589
g1592
sg1928
g1929
sg1930
g0
(g1931
g2
Ntp2590
Rp2591
(dp2592
g1930
g1780
sg1935
Nsg1936
Nsg60
g0
(g78
g2
Ntp2593
Rp2594
(dp2595
g14
I1
sg82
Nsg58
g59
sg41
(dp2596
sbsg1941
I00
sg1942
g1943
sg1944
Nsg1945
g1946
sg1947
g1948
sg1949
g0
(g1950
g2
Ntp2597
Rp2598
(dp2599
g1954
I00
sg1955
Nsg1956
g26
(g27
(I0
tp2600
g29
tp2601
Rp2602
(I1
(I0
I2
tp2603
g36
I00
g59
tp2604
bsg1962
I00
sg1963
F0.1111111111111111
sg1964
I1
sg1965
I00
sbsbsg1620
Nsg1621
g1622
sg1966
g1967
sg1579
I01
sg1968
I0
sg77
g26
(g27
(I0
tp2605
g29
tp2606
Rp2607
(I1
(I2
tp2608
g36
I00
S'\x00\x00\x00\x00\x00\x00\x00\x00\x00\x00\x00\x00\x00\x00\xf0?'
p2609
tp2610
bsg84
g26
(g27
(I0
tp2611
g29
tp2612
Rp2613
(I1
(I2
tp2614
g36
I00
S'\x00\x00\x00\x00\x00\x00\x00\x00\x00\x00\x00\x00\x00\x00\x00\x00'
p2615
tp2616
bsg1630
Nsg1605
Nsg1565
Nsg1596
Nsg1639
Nsg1981
Nsg1608
I00
sg1609
(dp2617
sg1983
Nsg1611
I00
sg1984
I00
sg1612
Nsg1985
Nsg1986
F0.5
sg1987
g1749
sg1988
Nsg1658
g1090
sg1641
Nsg1989
g1990
sg1642
I01
sg1991
g1749
sg1645
Nsg1992
I0
sg1648
I00
sg1993
g26
(g27
(I0
tp2618
g29
tp2619
Rp2620
(I1
(I2
I2
tp2621
g36
I00
S'\x00\x00\x00\x00\x00\x00\x00\x00\x00\x00\x00\x00\x00\x00\x00\x00\x00\x00\x00\x00\x00\x00\x00\x00\x00\x00\x00\x00\x00\x00\xf0?'
p2622
tp2623
bsg1649
g2000
sg2001
g2002
sg1653
I0
sg2003
g2004
sg1604
Nsg2005
I5
sg1654
I01
sg1656
F1.0
sg2006
g2007
sg2008
I00
sg60
g182
sg2009
I00
sg1657
Nsg1729
g1730
sg2010
g2011
sg1638
F0.5
sg1949
g0
(g1950
g2
Ntp2624
Rp2625
(dp2626
g1954
I00
sg1955
Nsg1956
g2620
sg1962
I00
sg1963
F0.1111111111111111
sg1964
I180
sg1965
I00
sbsbsg1656
Nsg1641
Nsg2015
g0
(g1922
g2
Ntp2627
Rp2628
(dp2629
g1569
g59
sg1594
I01
sg1926
g2019
sg1589
g1592
sg1928
g2020
sg1930
g0
(g1931
g2
Ntp2630
Rp2631
(dp2632
g1930
I3
sg1935
Nsg1936
F1.0
sg60
g0
(g158
g2
Ntp2633
Rp2634
(dp2635
g14
I2
sg82
Nsg70
g26
(g27
(I0
tp2636
g29
tp2637
Rp2638
(I1
(I3
I3
tp2639
g36
I00
S'\x00\x00\x00\x00\x00\x00\xf0?\x00\x00\x00\x00\x00\x00\x00\x00\x00\x00\x00\x00\x00\x00\x00\x00\x00\x00\x00\x00\x00\x00\x00\x00\x00\x00\x00\x00\x00\x00\xf0\xbf\x00\x00\x00\x00\x00\x00\x00\x00\x00\x00\x00\x00\x00\x00\x00\x00\x00\x00\x00\x00\x00\x00\x00\x00\x00\x00\x00\x00\x00\x00\xf0?'
p2640
tp2641
bsg58
g59
sg41
(dp2642
sbsg1941
I00
sg1942
g1943
sg1944
Nsg1945
g1946
sg1947
g1948
sg1949
g2035
sbsg1620
Nsg1621
g1622
sg1966
g2043
sg1579
I01
sg1968
I0
sg1630
Nsg1605
Nsg1565
Nsg1596
Nsg1639
Nsg1981
Nsg1608
I00
sg1609
(dp2643
sg1611
I00
sg1612
Nsg1983
Nsg1986
F0.5
sg1987
g1749
sg1988
Nsg1658
Nsg1641
Nsg1989
g1990
sg1642
I01
sg1991
g1749
sg1645
Nsg1992
I4
sg1648
I00
sg1649
g1780
sg2001
(I0
tp2644
sg1653
I0
sg2003
g2004
sg1604
Nsg2005
I5
sg1654
I01
sg1656
Nsg2006
g2046
sg2008
I01
sg60
g182
sg2009
I01
sg2047
F2.01
sg1657
Nsg1729
g1730
sg2010
g2048
sg1638
F1.0
sbsg60
Nsg2049
g1916
sg2050
S'xtick'
p2645
sg1657
Nsg1729
g1730
sg2052
g0
(g1922
g2
Ntp2646
Rp2647
(dp2648
g1569
g59
sg1594
I01
sg1926
g2056
sg1589
g1592
sg1928
g2057
sg1930
g0
(g1931
g2
Ntp2649
Rp2650
(dp2651
g1930
I2
sg1935
Nsg1936
F1.0
sg60
g0
(g158
g2
Ntp2652
Rp2653
(dp2654
g14
I2
sg82
Nsg70
g26
(g27
(I0
tp2655
g29
tp2656
Rp2657
(I1
(I3
I3
tp2658
g36
I00
S'\x00\x00\x00\x00\x00\x00\xf0?\x00\x00\x00\x00\x00\x00\x00\x00\x00\x00\x00\x00\x00\x00\x00\x00\x00\x00\x00\x00\x00\x00\x00\x00\x00\x00\x00\x00\x00\x00\xf0?\x00\x00\x00\x00\x00\x00\x00\x00\x00\x00\x00\x00\x00\x00\x00\x00\x00\x00\x00\x00\x00\x00\x00\x00\x00\x00\x00\x00\x00\x00\xf0?'
p2659
tp2660
bsg58
g59
sg41
(dp2661
sbsg1941
I00
sg1942
g1943
sg1944
Nsg1945
g1946
sg1947
g1948
sg1949
g2035
sbsg1620
Nsg1621
g1622
sg1966
g2071
sg1579
I01
sg1968
I0
sg1630
Nsg1605
Nsg1565
Nsg1596
Nsg1639
Nsg1981
Nsg1608
I00
sg1609
(dp2662
sg1611
I00
sg1612
Nsg1983
Nsg1986
F0.5
sg1987
g1749
sg1988
Nsg1658
Nsg1641
Nsg1989
g1990
sg1642
I01
sg1991
g1749
sg1645
Nsg1992
I4
sg1648
I00
sg1649
g1780
sg2001
(I0
tp2663
sg1653
I0
sg2003
g2004
sg1604
Nsg2005
I5
sg1654
I01
sg1656
Nsg2006
g2074
sg2008
I01
sg60
g182
sg2009
I01
sg2047
F2.01
sg1657
Nsg1729
g1730
sg2010
g2075
sg1638
F1.0
sbsbag0
(g1880
g2
Ntp2664
Rp2665
(dp2666
g1569
g59
sg1618
F0.5
sg1589
g1592
sg1884
I01
sg1594
I01
sg1653
I0
sg1620
Nsg1885
I4
sg1886
g1730
sg1887
I01
sg1714
I4
sg1621
g1622
sg1888
g1889
sg1890
g0
(g1585
g2
Ntp2667
Rp2668
(dp2669
g1569
g59
sg20
Nsg1589
g1592
sg1594
I01
sg1702
g0
(g1703
g2
Ntp2670
Rp2671
(dp2672
g1707
g1897
sg1710
Nsg1711
g1712
sg1713
g1712
sg1714
F16.0
sg1716
g1712
sg1717
g1712
sbsg1620
Nsg1621
g1622
sg1718
Nsg1579
I01
sg1604
Nsg77
I0
sg84
I0
sg1605
Nsg1565
Nsg1596
Nsg1608
I00
sg1609
(dp2673
sg1720
Nsg1611
I00
sg1612
Nsg1639
Nsg1658
Nsg1721
Nsg1641
Nsg1645
Nsg1648
I00
sg1722
g1694
sg1724
S'7.0'
p2674
sg1726
Nsg1630
Nsg1653
I0
sg1727
Nsg1654
I01
sg1656
Nsg1728
F1.2
sg60
g178
sg1657
Nsg1729
g1730
sg1731
g1732
sbsg1579
I01
sg1604
Nsg1900
I00
sg1605
Nsg1565
g7
sg1596
Nsg1901
I01
sg1608
I00
sg1609
(dp2675
sg1903
(I2
I3
tp2676
sg1611
I00
sg1905
F2.01
sg1612
Nsg1906
I01
sg1639
Nsg1658
Nsg1907
g2668
sg1908
g0
(g1585
g2
Ntp2677
Rp2678
(dp2679
g1569
g59
sg20
Nsg1589
g1592
sg1594
I01
sg1702
g0
(g1703
g2
Ntp2680
Rp2681
(dp2682
g1707
g1915
sg1710
Nsg1711
g1712
sg1713
g1712
sg1714
g1916
sg1716
g1712
sg1717
g1712
sbsg1620
Nsg1621
g1622
sg1718
Nsg1579
I01
sg1604
Nsg77
I1
sg84
I0
sg1605
Nsg1565
Nsg1596
Nsg1608
I00
sg1609
(dp2683
sg1720
Nsg1611
I00
sg1612
Nsg1639
Nsg1658
Nsg1721
Nsg1641
Nsg1645
Nsg1648
I00
sg1722
g1693
sg1724
S''
p2684
sg1726
Nsg1630
Nsg1653
I0
sg1727
Nsg1654
I01
sg1656
Nsg1728
F1.2
sg60
g265
sg1657
Nsg1729
g1730
sg1731
g1732
sbsg1645
Nsg1919
I0
sg1648
I00
sg1630
Nsg1920
I4
sg1654
I00
sg1921
g0
(g1922
g2
Ntp2685
Rp2686
(dp2687
g1569
g59
sg1594
I01
sg1926
g1927
sg1589
g1592
sg1928
g1929
sg1930
g0
(g1931
g2
Ntp2688
Rp2689
(dp2690
g1930
g1780
sg1935
Nsg1936
Nsg60
g0
(g78
g2
Ntp2691
Rp2692
(dp2693
g14
I1
sg82
Nsg58
g59
sg41
(dp2694
sbsg1941
I00
sg1942
g1943
sg1944
Nsg1945
g1946
sg1947
g1948
sg1949
g0
(g1950
g2
Ntp2695
Rp2696
(dp2697
g1954
I00
sg1955
Nsg1956
g26
(g27
(I0
tp2698
g29
tp2699
Rp2700
(I1
(I0
I2
tp2701
g36
I00
g59
tp2702
bsg1962
I00
sg1963
F0.1111111111111111
sg1964
I1
sg1965
I00
sbsbsg1620
Nsg1621
g1622
sg1966
g1967
sg1579
I01
sg1968
I0
sg77
g26
(g27
(I0
tp2703
g29
tp2704
Rp2705
(I1
(I2
tp2706
g36
I00
S'\x00\x00\x00\x00\x00\x00\x00\x00\x00\x00\x00\x00\x00\x00\xf0?'
p2707
tp2708
bsg84
g26
(g27
(I0
tp2709
g29
tp2710
Rp2711
(I1
(I2
tp2712
g36
I00
S'\x00\x00\x00\x00\x00\x00\x00\x00\x00\x00\x00\x00\x00\x00\x00\x00'
p2713
tp2714
bsg1630
Nsg1605
Nsg1565
Nsg1596
Nsg1639
Nsg1981
Nsg1608
I00
sg1609
(dp2715
sg1983
Nsg1611
I00
sg1984
I00
sg1612
Nsg1985
Nsg1986
F0.5
sg1987
g1749
sg1988
Nsg1658
g1090
sg1641
Nsg1989
g1990
sg1642
I01
sg1991
g1749
sg1645
Nsg1992
I0
sg1648
I00
sg1993
g26
(g27
(I0
tp2716
g29
tp2717
Rp2718
(I1
(I2
I2
tp2719
g36
I00
S'\x00\x00\x00\x00\x00\x00\x00\x00\x00\x00\x00\x00\x00\x00\x00\x00\x00\x00\x00\x00\x00\x00\x00\x00\x00\x00\x00\x00\x00\x00\xf0?'
p2720
tp2721
bsg1649
g2000
sg2001
g2002
sg1653
I0
sg2003
g2004
sg1604
Nsg2005
I5
sg1654
I01
sg1656
F1.0
sg2006
g2007
sg2008
I00
sg60
g182
sg2009
I00
sg1657
Nsg1729
g1730
sg2010
g2011
sg1638
F0.5
sg1949
g0
(g1950
g2
Ntp2722
Rp2723
(dp2724
g1954
I00
sg1955
Nsg1956
g2718
sg1962
I00
sg1963
F0.1111111111111111
sg1964
I180
sg1965
I00
sbsbsg1656
Nsg1641
Nsg2015
g0
(g1922
g2
Ntp2725
Rp2726
(dp2727
g1569
g59
sg1594
I01
sg1926
g2019
sg1589
g1592
sg1928
g2020
sg1930
g0
(g1931
g2
Ntp2728
Rp2729
(dp2730
g1930
I3
sg1935
Nsg1936
F1.0
sg60
g0
(g158
g2
Ntp2731
Rp2732
(dp2733
g14
I2
sg82
Nsg70
g26
(g27
(I0
tp2734
g29
tp2735
Rp2736
(I1
(I3
I3
tp2737
g36
I00
S'\x00\x00\x00\x00\x00\x00\xf0?\x00\x00\x00\x00\x00\x00\x00\x00\x00\x00\x00\x00\x00\x00\x00\x00\x00\x00\x00\x00\x00\x00\x00\x00\x00\x00\x00\x00\x00\x00\xf0\xbf\x00\x00\x00\x00\x00\x00\x00\x00\x00\x00\x00\x00\x00\x00\x00\x00\x00\x00\x00\x00\x00\x00\x00\x00\x00\x00\x00\x00\x00\x00\xf0?'
p2738
tp2739
bsg58
g59
sg41
(dp2740
sbsg1941
I00
sg1942
g1943
sg1944
Nsg1945
g1946
sg1947
g1948
sg1949
g2035
sbsg1620
Nsg1621
g1622
sg1966
g2043
sg1579
I01
sg1968
I0
sg1630
Nsg1605
Nsg1565
Nsg1596
Nsg1639
Nsg1981
Nsg1608
I00
sg1609
(dp2741
sg1611
I00
sg1612
Nsg1983
Nsg1986
F0.5
sg1987
g1749
sg1988
Nsg1658
Nsg1641
Nsg1989
g1990
sg1642
I01
sg1991
g1749
sg1645
Nsg1992
I4
sg1648
I00
sg1649
g1780
sg2001
(I0
tp2742
sg1653
I0
sg2003
g2004
sg1604
Nsg2005
I5
sg1654
I01
sg1656
Nsg2006
g2046
sg2008
I01
sg60
g182
sg2009
I01
sg2047
F2.01
sg1657
Nsg1729
g1730
sg2010
g2048
sg1638
F1.0
sbsg60
Nsg2049
g1916
sg2050
S'xtick'
p2743
sg1657
Nsg1729
g1730
sg2052
g0
(g1922
g2
Ntp2744
Rp2745
(dp2746
g1569
g59
sg1594
I01
sg1926
g2056
sg1589
g1592
sg1928
g2057
sg1930
g0
(g1931
g2
Ntp2747
Rp2748
(dp2749
g1930
I2
sg1935
Nsg1936
F1.0
sg60
g0
(g158
g2
Ntp2750
Rp2751
(dp2752
g14
I2
sg82
Nsg70
g26
(g27
(I0
tp2753
g29
tp2754
Rp2755
(I1
(I3
I3
tp2756
g36
I00
S'\x00\x00\x00\x00\x00\x00\xf0?\x00\x00\x00\x00\x00\x00\x00\x00\x00\x00\x00\x00\x00\x00\x00\x00\x00\x00\x00\x00\x00\x00\x00\x00\x00\x00\x00\x00\x00\x00\xf0?\x00\x00\x00\x00\x00\x00\x00\x00\x00\x00\x00\x00\x00\x00\x00\x00\x00\x00\x00\x00\x00\x00\x00\x00\x00\x00\x00\x00\x00\x00\xf0?'
p2757
tp2758
bsg58
g59
sg41
(dp2759
sbsg1941
I00
sg1942
g1943
sg1944
Nsg1945
g1946
sg1947
g1948
sg1949
g2035
sbsg1620
Nsg1621
g1622
sg1966
g2071
sg1579
I01
sg1968
I0
sg1630
Nsg1605
Nsg1565
Nsg1596
Nsg1639
Nsg1981
Nsg1608
I00
sg1609
(dp2760
sg1611
I00
sg1612
Nsg1983
Nsg1986
F0.5
sg1987
g1749
sg1988
Nsg1658
Nsg1641
Nsg1989
g1990
sg1642
I01
sg1991
g1749
sg1645
Nsg1992
I4
sg1648
I00
sg1649
g1780
sg2001
(I0
tp2761
sg1653
I0
sg2003
g2004
sg1604
Nsg2005
I5
sg1654
I01
sg1656
Nsg2006
g2074
sg2008
I01
sg60
g182
sg2009
I01
sg2047
F2.01
sg1657
Nsg1729
g1730
sg2010
g2075
sg1638
F1.0
sbsbag0
(g1880
g2
Ntp2762
Rp2763
(dp2764
g1569
g59
sg1618
F0.5
sg1589
g1592
sg1884
I01
sg1594
I01
sg1653
I0
sg1620
Nsg1885
I4
sg1886
g1730
sg1887
I01
sg1714
I4
sg1621
g1622
sg1888
g1889
sg1890
g0
(g1585
g2
Ntp2765
Rp2766
(dp2767
g1569
g59
sg20
Nsg1589
g1592
sg1594
I01
sg1702
g0
(g1703
g2
Ntp2768
Rp2769
(dp2770
g1707
g1897
sg1710
Nsg1711
g1712
sg1713
g1712
sg1714
F16.0
sg1716
g1712
sg1717
g1712
sbsg1620
Nsg1621
g1622
sg1718
Nsg1579
I01
sg1604
Nsg77
I0
sg84
I0
sg1605
Nsg1565
Nsg1596
Nsg1608
I00
sg1609
(dp2771
sg1720
Nsg1611
I00
sg1612
Nsg1639
Nsg1658
Nsg1721
Nsg1641
Nsg1645
Nsg1648
I00
sg1722
g1694
sg1724
S'8.0'
p2772
sg1726
Nsg1630
Nsg1653
I0
sg1727
Nsg1654
I01
sg1656
Nsg1728
F1.2
sg60
g178
sg1657
Nsg1729
g1730
sg1731
g1732
sbsg1579
I01
sg1604
Nsg1900
I00
sg1605
Nsg1565
g7
sg1596
Nsg1901
I01
sg1608
I00
sg1609
(dp2773
sg1903
(I2
I3
tp2774
sg1611
I00
sg1905
F2.01
sg1612
Nsg1906
I01
sg1639
Nsg1658
Nsg1907
g2766
sg1908
g0
(g1585
g2
Ntp2775
Rp2776
(dp2777
g1569
g59
sg20
Nsg1589
g1592
sg1594
I01
sg1702
g0
(g1703
g2
Ntp2778
Rp2779
(dp2780
g1707
g1915
sg1710
Nsg1711
g1712
sg1713
g1712
sg1714
g1916
sg1716
g1712
sg1717
g1712
sbsg1620
Nsg1621
g1622
sg1718
Nsg1579
I01
sg1604
Nsg77
I1
sg84
I0
sg1605
Nsg1565
Nsg1596
Nsg1608
I00
sg1609
(dp2781
sg1720
Nsg1611
I00
sg1612
Nsg1639
Nsg1658
Nsg1721
Nsg1641
Nsg1645
Nsg1648
I00
sg1722
g1693
sg1724
S''
p2782
sg1726
Nsg1630
Nsg1653
I0
sg1727
Nsg1654
I01
sg1656
Nsg1728
F1.2
sg60
g265
sg1657
Nsg1729
g1730
sg1731
g1732
sbsg1645
Nsg1919
I0
sg1648
I00
sg1630
Nsg1920
I4
sg1654
I00
sg1921
g0
(g1922
g2
Ntp2783
Rp2784
(dp2785
g1569
g59
sg1594
I01
sg1926
g1927
sg1589
g1592
sg1928
g1929
sg1930
g0
(g1931
g2
Ntp2786
Rp2787
(dp2788
g1930
g1780
sg1935
Nsg1936
Nsg60
g0
(g78
g2
Ntp2789
Rp2790
(dp2791
g14
I1
sg82
Nsg58
g59
sg41
(dp2792
sbsg1941
I00
sg1942
g1943
sg1944
Nsg1945
g1946
sg1947
g1948
sg1949
g0
(g1950
g2
Ntp2793
Rp2794
(dp2795
g1954
I00
sg1955
Nsg1956
g26
(g27
(I0
tp2796
g29
tp2797
Rp2798
(I1
(I0
I2
tp2799
g36
I00
g59
tp2800
bsg1962
I00
sg1963
F0.1111111111111111
sg1964
I1
sg1965
I00
sbsbsg1620
Nsg1621
g1622
sg1966
g1967
sg1579
I01
sg1968
I0
sg77
g26
(g27
(I0
tp2801
g29
tp2802
Rp2803
(I1
(I2
tp2804
g36
I00
S'\x00\x00\x00\x00\x00\x00\x00\x00\x00\x00\x00\x00\x00\x00\xf0?'
p2805
tp2806
bsg84
g26
(g27
(I0
tp2807
g29
tp2808
Rp2809
(I1
(I2
tp2810
g36
I00
S'\x00\x00\x00\x00\x00\x00\x00\x00\x00\x00\x00\x00\x00\x00\x00\x00'
p2811
tp2812
bsg1630
Nsg1605
Nsg1565
Nsg1596
Nsg1639
Nsg1981
Nsg1608
I00
sg1609
(dp2813
sg1983
Nsg1611
I00
sg1984
I00
sg1612
Nsg1985
Nsg1986
F0.5
sg1987
g1749
sg1988
Nsg1658
g1090
sg1641
Nsg1989
g1990
sg1642
I01
sg1991
g1749
sg1645
Nsg1992
I0
sg1648
I00
sg1993
g26
(g27
(I0
tp2814
g29
tp2815
Rp2816
(I1
(I2
I2
tp2817
g36
I00
S'\x00\x00\x00\x00\x00\x00\x00\x00\x00\x00\x00\x00\x00\x00\x00\x00\x00\x00\x00\x00\x00\x00\x00\x00\x00\x00\x00\x00\x00\x00\xf0?'
p2818
tp2819
bsg1649
g2000
sg2001
g2002
sg1653
I0
sg2003
g2004
sg1604
Nsg2005
I5
sg1654
I01
sg1656
F1.0
sg2006
g2007
sg2008
I00
sg60
g182
sg2009
I00
sg1657
Nsg1729
g1730
sg2010
g2011
sg1638
F0.5
sg1949
g0
(g1950
g2
Ntp2820
Rp2821
(dp2822
g1954
I00
sg1955
Nsg1956
g2816
sg1962
I00
sg1963
F0.1111111111111111
sg1964
I180
sg1965
I00
sbsbsg1656
Nsg1641
Nsg2015
g0
(g1922
g2
Ntp2823
Rp2824
(dp2825
g1569
g59
sg1594
I01
sg1926
g2019
sg1589
g1592
sg1928
g2020
sg1930
g0
(g1931
g2
Ntp2826
Rp2827
(dp2828
g1930
I3
sg1935
Nsg1936
F1.0
sg60
g0
(g158
g2
Ntp2829
Rp2830
(dp2831
g14
I2
sg82
Nsg70
g26
(g27
(I0
tp2832
g29
tp2833
Rp2834
(I1
(I3
I3
tp2835
g36
I00
S'\x00\x00\x00\x00\x00\x00\xf0?\x00\x00\x00\x00\x00\x00\x00\x00\x00\x00\x00\x00\x00\x00\x00\x00\x00\x00\x00\x00\x00\x00\x00\x00\x00\x00\x00\x00\x00\x00\xf0\xbf\x00\x00\x00\x00\x00\x00\x00\x00\x00\x00\x00\x00\x00\x00\x00\x00\x00\x00\x00\x00\x00\x00\x00\x00\x00\x00\x00\x00\x00\x00\xf0?'
p2836
tp2837
bsg58
g59
sg41
(dp2838
sbsg1941
I00
sg1942
g1943
sg1944
Nsg1945
g1946
sg1947
g1948
sg1949
g2035
sbsg1620
Nsg1621
g1622
sg1966
g2043
sg1579
I01
sg1968
I0
sg1630
Nsg1605
Nsg1565
Nsg1596
Nsg1639
Nsg1981
Nsg1608
I00
sg1609
(dp2839
sg1611
I00
sg1612
Nsg1983
Nsg1986
F0.5
sg1987
g1749
sg1988
Nsg1658
Nsg1641
Nsg1989
g1990
sg1642
I01
sg1991
g1749
sg1645
Nsg1992
I4
sg1648
I00
sg1649
g1780
sg2001
(I0
tp2840
sg1653
I0
sg2003
g2004
sg1604
Nsg2005
I5
sg1654
I01
sg1656
Nsg2006
g2046
sg2008
I01
sg60
g182
sg2009
I01
sg2047
F2.01
sg1657
Nsg1729
g1730
sg2010
g2048
sg1638
F1.0
sbsg60
Nsg2049
g1916
sg2050
S'xtick'
p2841
sg1657
Nsg1729
g1730
sg2052
g0
(g1922
g2
Ntp2842
Rp2843
(dp2844
g1569
g59
sg1594
I01
sg1926
g2056
sg1589
g1592
sg1928
g2057
sg1930
g0
(g1931
g2
Ntp2845
Rp2846
(dp2847
g1930
I2
sg1935
Nsg1936
F1.0
sg60
g0
(g158
g2
Ntp2848
Rp2849
(dp2850
g14
I2
sg82
Nsg70
g26
(g27
(I0
tp2851
g29
tp2852
Rp2853
(I1
(I3
I3
tp2854
g36
I00
S'\x00\x00\x00\x00\x00\x00\xf0?\x00\x00\x00\x00\x00\x00\x00\x00\x00\x00\x00\x00\x00\x00\x00\x00\x00\x00\x00\x00\x00\x00\x00\x00\x00\x00\x00\x00\x00\x00\xf0?\x00\x00\x00\x00\x00\x00\x00\x00\x00\x00\x00\x00\x00\x00\x00\x00\x00\x00\x00\x00\x00\x00\x00\x00\x00\x00\x00\x00\x00\x00\xf0?'
p2855
tp2856
bsg58
g59
sg41
(dp2857
sbsg1941
I00
sg1942
g1943
sg1944
Nsg1945
g1946
sg1947
g1948
sg1949
g2035
sbsg1620
Nsg1621
g1622
sg1966
g2071
sg1579
I01
sg1968
I0
sg1630
Nsg1605
Nsg1565
Nsg1596
Nsg1639
Nsg1981
Nsg1608
I00
sg1609
(dp2858
sg1611
I00
sg1612
Nsg1983
Nsg1986
F0.5
sg1987
g1749
sg1988
Nsg1658
Nsg1641
Nsg1989
g1990
sg1642
I01
sg1991
g1749
sg1645
Nsg1992
I4
sg1648
I00
sg1649
g1780
sg2001
(I0
tp2859
sg1653
I0
sg2003
g2004
sg1604
Nsg2005
I5
sg1654
I01
sg1656
Nsg2006
g2074
sg2008
I01
sg60
g182
sg2009
I01
sg2047
F2.01
sg1657
Nsg1729
g1730
sg2010
g2075
sg1638
F1.0
sbsbasg1620
NsS'_smart_bounds'
p2860
I00
sg1621
g1622
sg1579
I01
sg1604
NsS'offsetText'
p2861
g0
(g1585
g2
Ntp2862
Rp2863
(dp2864
g1569
g59
sg20
Nsg1589
g1592
sg1594
I01
sg1702
g0
(g1703
g2
Ntp2865
Rp2866
(dp2867
g1707
(lp2868
g1709
asg1710
Nsg1711
g1712
sg1713
g1712
sg1714
g1916
sg1716
g1712
sg1717
g1712
sbsg1620
Nsg1621
g1622
sg1718
Nsg1579
I01
sg1604
Nsg77
I0
sg84
I1
sg1605
Nsg1565
Nsg1596
Nsg1608
I00
sg1609
(dp2869
sg1720
Nsg1611
I00
sg1612
Nsg1639
Nsg1658
Nsg1721
Nsg1641
Nsg1645
Nsg1648
I00
sg1722
g1694
sg1724
S''
p2870
sg1726
Nsg1630
Nsg1653
I0
sg1727
Nsg1654
I01
sg1656
Nsg1728
F1.2
sg60
g1482
sg1657
Nsg1729
g1730
sg1731
g1692
sbsg1605
Nsg1565
g7
sg1596
Nsg1890
g0
(g1585
g2
Ntp2871
Rp2872
(dp2873
g1569
g59
sg20
Nsg1589
g1592
sg1594
I01
sg1702
g0
(g1703
g2
Ntp2874
Rp2875
(dp2876
g1707
(lp2877
g1709
asg1710
Nsg1711
g1712
sg1713
g1712
sg1714
F20.0
sg1716
g1712
sg1717
g1712
sbsg1620
Nsg1621
g1622
sg1718
Nsg1579
I01
sg1604
Nsg77
I0
sg84
F0.5
sg1605
Nsg1565
Nsg1596
Nsg1608
I00
sg1609
(dp2878
sg1720
Nsg1611
I00
sg1612
Nsg1639
Nsg1658
Nsg1721
Nsg1641
Nsg1645
Nsg1648
I00
sg1722
g1694
sg1724
S'iteration'
p2879
sg1726
Nsg1630
Nsg1653
I0
sg1727
Nsg1654
I01
sg1656
Nsg1728
F1.2
sg60
g1186
sg1657
Nsg1729
g1730
sg1731
g1732
sbsS'isDefault_majfmt'
p2880
I00
sg1608
I00
sg1609
(dp2881
sS'units'
p2882
Nsg1611
I00
sS'minor'
p2883
(imatplotlib.axis
Ticker
p2884
(dp2885
g1846
g0
(cmatplotlib.ticker
NullLocator
p2886
g2
Ntp2887
Rp2888
(dp2889
g1858
g1841
sbsg1859
g0
(cmatplotlib.ticker
NullFormatter
p2890
g2
Ntp2891
Rp2892
(dp2893
g1858
g1841
sbsbsg1612
NsS'_major_tick_kw'
p2894
(dp2895
g1887
I01
ssS'isDefault_minloc'
p2896
I01
sg1639
Nsg1641
NsS'_gridOnMajor'
p2897
I01
sS'_lastNumMinorTicks'
p2898
I1
sS'labelpad'
p2899
I5
sS'isDefault_majloc'
p2900
I01
sg1662
(imatplotlib.cbook
CallbackRegistry
p2901
(dp2902
bsg1645
Nsg1648
I00
sS'_autolabelpos'
p2903
I01
sg1630
Nsg1653
I0
sS'_lastNumMajorTicks'
p2904
I9
sS'converter'
p2905
Nsg1654
I00
sg1656
NsS'offset_text_position'
p2906
g1693
sg60
NsS'label_position'
p2907
g1693
sg1657
Nsg1658
g1020
sg2005
I15
sS'minorTicks'
p2908
(lp2909
g0
(g1880
g2
Ntp2910
Rp2911
(dp2912
g1569
g59
sg1618
F0.5
sg1589
g1592
sg1884
I01
sg1594
I01
sg1653
I0
sg1620
Nsg1885
I4
sg1886
g1730
sg1887
I00
sg1714
I2
sg1621
g1622
sg1888
g1889
sg1890
g0
(g1585
g2
Ntp2913
Rp2914
(dp2915
g1569
g59
sg20
Nsg1589
g1592
sg1594
I01
sg1702
g0
(g1703
g2
Ntp2916
Rp2917
(dp2918
g1707
(lp2919
g1709
asg1710
Nsg1711
g1712
sg1713
g1712
sg1714
g1916
sg1716
g1712
sg1717
g1712
sbsg1620
Nsg1621
g1622
sg1718
Nsg1579
I01
sg1604
Nsg77
I0
sg84
I0
sg1605
Nsg1565
Nsg1596
Nsg1608
I00
sg1609
(dp2920
sg1720
Nsg1611
I00
sg1612
Nsg1639
Nsg1658
Nsg1721
Nsg1641
Nsg1645
Nsg1648
I00
sg1722
g1694
sg1724
S''
p2921
sg1726
Nsg1630
Nsg1653
I0
sg1727
Nsg1654
I01
sg1656
Nsg1728
F1.2
sg60
g301
sg1657
Nsg1729
g1730
sg1731
g1732
sbsg1579
I01
sg1604
Nsg1900
I00
sg1605
Nsg1565
g7
sg1596
Nsg1901
I01
sg1608
I00
sg1609
(dp2922
sg1903
(I2
I3
tp2923
sg1611
I00
sg1905
I2
sg1612
Nsg1906
I01
sg1639
Nsg1658
g662
sg1907
g2914
sg1908
g0
(g1585
g2
Ntp2924
Rp2925
(dp2926
g1569
g59
sg20
Nsg1589
g1592
sg1594
I01
sg1702
g0
(g1703
g2
Ntp2927
Rp2928
(dp2929
g1707
(lp2930
g1709
asg1710
Nsg1711
g1712
sg1713
g1712
sg1714
g1916
sg1716
g1712
sg1717
g1712
sbsg1620
Nsg1621
g1622
sg1718
Nsg1579
I01
sg1604
Nsg77
I1
sg84
I0
sg1605
Nsg1565
Nsg1596
Nsg1608
I00
sg1609
(dp2931
sg1720
Nsg1611
I00
sg1612
Nsg1639
Nsg1658
Nsg1721
Nsg1641
Nsg1645
Nsg1648
I00
sg1722
g1693
sg1724
S''
p2932
sg1726
Nsg1630
Nsg1653
I0
sg1727
Nsg1654
I01
sg1656
Nsg1728
F1.2
sg60
g283
sg1657
Nsg1729
g1730
sg1731
g1732
sbsg1645
Nsg1919
I0
sg1648
I00
sg1630
Nsg1920
I4
sg1654
I00
sg1921
g0
(g1922
g2
Ntp2933
Rp2934
(dp2935
g1569
g59
sg1594
I01
sg1926
S'projecting'
p2936
sg1589
g1592
sg1928
S'butt'
p2937
sg1930
g0
(g1931
g2
Ntp2938
Rp2939
(dp2940
g1930
g1780
sg1935
Nsg1936
Nsg60
g0
(g78
g2
Ntp2941
Rp2942
(dp2943
g14
I1
sg82
Nsg58
g59
sg41
(dp2944
sbsg1941
I00
sg1942
g1943
sg1944
Nsg1945
g1946
sg1947
g1948
sg1949
g0
(g1950
g2
Ntp2945
Rp2946
(dp2947
g1954
I00
sg1955
Nsg1956
g26
(g27
(I0
tp2948
g29
tp2949
Rp2950
(I1
(I0
I2
tp2951
g36
I00
g59
tp2952
bsg1962
I00
sg1963
F0.1111111111111111
sg1964
I1
sg1965
I00
sbsbsg1620
Nsg1621
g1622
sg1966
S'round'
p2953
sg1579
I01
sg1968
I0
sg77
g26
(g27
(I0
tp2954
g29
tp2955
Rp2956
(I1
(I2
tp2957
g36
I00
S'\x00\x00\x00\x00\x00\x00\x00\x00\x00\x00\x00\x00\x00\x00\xf0?'
p2958
tp2959
bsg84
g26
(g27
(I0
tp2960
g29
tp2961
Rp2962
(I1
(I2
tp2963
g36
I00
S'\x00\x00\x00\x00\x00\x00\x00\x00\x00\x00\x00\x00\x00\x00\x00\x00'
p2964
tp2965
bsg1630
Nsg1605
Nsg1565
Nsg1596
Nsg1639
Nsg1981
Nsg1608
I00
sg1609
(dp2966
sg1983
Nsg1611
I00
sg1984
I00
sg1612
Nsg1985
Nsg1986
F0.5
sg1987
g1749
sg1988
Nsg1658
g522
sg1641
Nsg1989
g1990
sg1642
I01
sg1991
g1749
sg1645
Nsg1992
I0
sg1648
I00
sg1993
g26
(g27
(I0
tp2967
g29
tp2968
Rp2969
(I1
(I2
I2
tp2970
g36
I00
S'\x00\x00\x00\x00\x00\x00\x00\x00\x00\x00\x00\x00\x00\x00\x00\x00\x00\x00\x00\x00\x00\x00\x00\x00\x00\x00\x00\x00\x00\x00\xf0?'
p2971
tp2972
bsg1649
g2000
sg2001
g2002
sg1653
I0
sg2003
g2004
sg1604
Nsg2005
I5
sg1654
I01
sg1656
F1.0
sg2006
S'round'
p2973
sg2008
I00
sg60
g182
sg2009
I00
sg1657
Nsg1729
g1730
sg2010
g2011
sg1638
F0.5
sg1949
g0
(g1950
g2
Ntp2974
Rp2975
(dp2976
g1954
I00
sg1955
Nsg1956
g2969
sg1962
I00
sg1963
F0.1111111111111111
sg1964
I180
sg1965
I00
sbsbsg1656
Nsg1641
Nsg2015
g0
(g1922
g2
Ntp2977
Rp2978
(dp2979
g1569
g59
sg1594
I01
sg1926
S'projecting'
p2980
sg1589
g1592
sg1928
S'butt'
p2981
sg1930
g0
(g1931
g2
Ntp2982
Rp2983
(dp2984
g1930
I3
sg1935
Nsg1936
F1.0
sg60
g0
(g158
g2
Ntp2985
Rp2986
(dp2987
g14
I2
sg82
Nsg70
g26
(g27
(I0
tp2988
g29
tp2989
Rp2990
(I1
(I3
I3
tp2991
g36
I00
S'\x00\x00\x00\x00\x00\x00\xf0?\x00\x00\x00\x00\x00\x00\x00\x00\x00\x00\x00\x00\x00\x00\x00\x00\x00\x00\x00\x00\x00\x00\x00\x00\x00\x00\x00\x00\x00\x00\xf0\xbf\x00\x00\x00\x00\x00\x00\x00\x00\x00\x00\x00\x00\x00\x00\x00\x00\x00\x00\x00\x00\x00\x00\x00\x00\x00\x00\x00\x00\x00\x00\xf0?'
p2992
tp2993
bsg58
g59
sg41
(dp2994
sbsg1941
I00
sg1942
g1943
sg1944
Nsg1945
g1946
sg1947
g1948
sg1949
g2035
sbsg1620
Nsg1621
g1622
sg1966
S'round'
p2995
sg1579
I01
sg1968
I0
sg1630
Nsg1605
Nsg1565
Nsg1596
Nsg1639
Nsg1981
Nsg1608
I00
sg1609
(dp2996
sg1611
I00
sg1612
Nsg1983
Nsg1986
F0.5
sg1987
g1749
sg1988
Nsg1658
Nsg1641
Nsg1989
g1990
sg1642
I01
sg1991
g1749
sg1645
Nsg1992
I2
sg1648
I00
sg1649
g1780
sg2001
(I0
tp2997
sg1653
I0
sg2003
g2004
sg1604
Nsg2005
I5
sg1654
I01
sg1656
Nsg2006
S'round'
p2998
sg2008
I01
sg60
g182
sg2009
I01
sg2047
I2
sg1657
Nsg1729
g1730
sg2010
g2048
sg1638
F1.0
sbsg60
Nsg2049
g1916
sg2050
S'xtick'
p2999
sg1657
Nsg1729
g1730
sg2052
g0
(g1922
g2
Ntp3000
Rp3001
(dp3002
g1569
g59
sg1594
I01
sg1926
S'projecting'
p3003
sg1589
g1592
sg1928
S'butt'
p3004
sg1930
g0
(g1931
g2
Ntp3005
Rp3006
(dp3007
g1930
I2
sg1935
Nsg1936
F1.0
sg60
g0
(g158
g2
Ntp3008
Rp3009
(dp3010
g14
I2
sg82
Nsg70
g26
(g27
(I0
tp3011
g29
tp3012
Rp3013
(I1
(I3
I3
tp3014
g36
I00
S'\x00\x00\x00\x00\x00\x00\xf0?\x00\x00\x00\x00\x00\x00\x00\x00\x00\x00\x00\x00\x00\x00\x00\x00\x00\x00\x00\x00\x00\x00\x00\x00\x00\x00\x00\x00\x00\x00\xf0?\x00\x00\x00\x00\x00\x00\x00\x00\x00\x00\x00\x00\x00\x00\x00\x00\x00\x00\x00\x00\x00\x00\x00\x00\x00\x00\x00\x00\x00\x00\xf0?'
p3015
tp3016
bsg58
g59
sg41
(dp3017
sbsg1941
I00
sg1942
g1943
sg1944
Nsg1945
g1946
sg1947
g1948
sg1949
g2035
sbsg1620
Nsg1621
g1622
sg1966
S'round'
p3018
sg1579
I01
sg1968
I0
sg1630
Nsg1605
Nsg1565
Nsg1596
Nsg1639
Nsg1981
Nsg1608
I00
sg1609
(dp3019
sg1611
I00
sg1612
Nsg1983
Nsg1986
F0.5
sg1987
g1749
sg1988
Nsg1658
Nsg1641
Nsg1989
g1990
sg1642
I01
sg1991
g1749
sg1645
Nsg1992
I2
sg1648
I00
sg1649
g1780
sg2001
(I0
tp3020
sg1653
I0
sg2003
g2004
sg1604
Nsg2005
I5
sg1654
I01
sg1656
Nsg2006
S'round'
p3021
sg2008
I01
sg60
g182
sg2009
I01
sg2047
I2
sg1657
Nsg1729
g1730
sg2010
g2075
sg1638
F1.0
sbsbag0
(g1880
g2
Ntp3022
Rp3023
(dp3024
g1569
g59
sg1618
F0.5
sg1589
g1592
sg1884
I01
sg1594
I01
sg1653
I0
sg1620
Nsg1885
I4
sg1886
g1730
sg1887
I00
sg1714
I2
sg1621
g1622
sg1888
g1889
sg1890
g0
(g1585
g2
Ntp3025
Rp3026
(dp3027
g1569
g59
sg20
Nsg1589
g1592
sg1594
I01
sg1702
g0
(g1703
g2
Ntp3028
Rp3029
(dp3030
g1707
(lp3031
g1709
asg1710
Nsg1711
g1712
sg1713
g1712
sg1714
g1916
sg1716
g1712
sg1717
g1712
sbsg1620
Nsg1621
g1622
sg1718
Nsg1579
I01
sg1604
Nsg77
I0
sg84
I0
sg1605
Nsg1565
Nsg1596
Nsg1608
I00
sg1609
(dp3032
sg1720
Nsg1611
I00
sg1612
Nsg1639
Nsg1658
Nsg1721
Nsg1641
Nsg1645
Nsg1648
I00
sg1722
g1694
sg1724
S''
p3033
sg1726
Nsg1630
Nsg1653
I0
sg1727
Nsg1654
I01
sg1656
Nsg1728
F1.2
sg60
g292
sg1657
Nsg1729
g1730
sg1731
g1732
sbsg1579
I01
sg1604
Nsg1900
I00
sg1605
Nsg1565
g7
sg1596
Nsg1901
I01
sg1608
I00
sg1609
(dp3034
sg1903
(I2
I3
tp3035
sg1611
I00
sg1905
I2
sg1612
Nsg1906
I01
sg1639
Nsg1658
g452
sg1907
g3026
sg1908
g0
(g1585
g2
Ntp3036
Rp3037
(dp3038
g1569
g59
sg20
Nsg1589
g1592
sg1594
I01
sg1702
g0
(g1703
g2
Ntp3039
Rp3040
(dp3041
g1707
(lp3042
g1709
asg1710
Nsg1711
g1712
sg1713
g1712
sg1714
g1916
sg1716
g1712
sg1717
g1712
sbsg1620
Nsg1621
g1622
sg1718
Nsg1579
I01
sg1604
Nsg77
I1
sg84
I0
sg1605
Nsg1565
Nsg1596
Nsg1608
I00
sg1609
(dp3043
sg1720
Nsg1611
I00
sg1612
Nsg1639
Nsg1658
Nsg1721
Nsg1641
Nsg1645
Nsg1648
I00
sg1722
g1693
sg1724
S''
p3044
sg1726
Nsg1630
Nsg1653
I0
sg1727
Nsg1654
I01
sg1656
Nsg1728
F1.2
sg60
g274
sg1657
Nsg1729
g1730
sg1731
g1732
sbsg1645
Nsg1919
I0
sg1648
I00
sg1630
Nsg1920
I4
sg1654
I00
sg1921
g0
(g1922
g2
Ntp3045
Rp3046
(dp3047
g1569
g59
sg1594
I01
sg1926
S'projecting'
p3048
sg1589
g1592
sg1928
S'butt'
p3049
sg1930
g0
(g1931
g2
Ntp3050
Rp3051
(dp3052
g1930
g1780
sg1935
Nsg1936
Nsg60
g0
(g78
g2
Ntp3053
Rp3054
(dp3055
g14
I1
sg82
Nsg58
g59
sg41
(dp3056
sbsg1941
I00
sg1942
g1943
sg1944
Nsg1945
g1946
sg1947
g1948
sg1949
g0
(g1950
g2
Ntp3057
Rp3058
(dp3059
g1954
I00
sg1955
Nsg1956
g26
(g27
(I0
tp3060
g29
tp3061
Rp3062
(I1
(I0
I2
tp3063
g36
I00
g59
tp3064
bsg1962
I00
sg1963
F0.1111111111111111
sg1964
I1
sg1965
I00
sbsbsg1620
Nsg1621
g1622
sg1966
S'round'
p3065
sg1579
I01
sg1968
I0
sg77
g26
(g27
(I0
tp3066
g29
tp3067
Rp3068
(I1
(I2
tp3069
g36
I00
S'\x00\x00\x00\x00\x00\x00\x00\x00\x00\x00\x00\x00\x00\x00\xf0?'
p3070
tp3071
bsg84
g26
(g27
(I0
tp3072
g29
tp3073
Rp3074
(I1
(I2
tp3075
g36
I00
S'\x00\x00\x00\x00\x00\x00\x00\x00\x00\x00\x00\x00\x00\x00\x00\x00'
p3076
tp3077
bsg1630
Nsg1605
Nsg1565
Nsg1596
Nsg1639
Nsg1981
Nsg1608
I00
sg1609
(dp3078
sg1983
Nsg1611
I00
sg1984
I00
sg1612
Nsg1985
Nsg1986
F0.5
sg1987
g1749
sg1988
Nsg1658
g1160
sg1641
Nsg1989
g1990
sg1642
I01
sg1991
g1749
sg1645
Nsg1992
I0
sg1648
I00
sg1993
g26
(g27
(I0
tp3079
g29
tp3080
Rp3081
(I1
(I2
I2
tp3082
g36
I00
S'\x00\x00\x00\x00\x00\x00\x00\x00\x00\x00\x00\x00\x00\x00\x00\x00\x00\x00\x00\x00\x00\x00\x00\x00\x00\x00\x00\x00\x00\x00\xf0?'
p3083
tp3084
bsg1649
g2000
sg2001
g2002
sg1653
I0
sg2003
g2004
sg1604
Nsg2005
I5
sg1654
I01
sg1656
F1.0
sg2006
S'round'
p3085
sg2008
I00
sg60
g182
sg2009
I00
sg1657
Nsg1729
g1730
sg2010
g2011
sg1638
F0.5
sg1949
g0
(g1950
g2
Ntp3086
Rp3087
(dp3088
g1954
I00
sg1955
Nsg1956
g3081
sg1962
I00
sg1963
F0.1111111111111111
sg1964
I180
sg1965
I00
sbsbsg1656
Nsg1641
Nsg2015
g0
(g1922
g2
Ntp3089
Rp3090
(dp3091
g1569
g59
sg1594
I01
sg1926
S'projecting'
p3092
sg1589
g1592
sg1928
S'butt'
p3093
sg1930
g0
(g1931
g2
Ntp3094
Rp3095
(dp3096
g1930
I3
sg1935
Nsg1936
F1.0
sg60
g0
(g158
g2
Ntp3097
Rp3098
(dp3099
g14
I2
sg82
Nsg70
g26
(g27
(I0
tp3100
g29
tp3101
Rp3102
(I1
(I3
I3
tp3103
g36
I00
S'\x00\x00\x00\x00\x00\x00\xf0?\x00\x00\x00\x00\x00\x00\x00\x00\x00\x00\x00\x00\x00\x00\x00\x00\x00\x00\x00\x00\x00\x00\x00\x00\x00\x00\x00\x00\x00\x00\xf0\xbf\x00\x00\x00\x00\x00\x00\x00\x00\x00\x00\x00\x00\x00\x00\x00\x00\x00\x00\x00\x00\x00\x00\x00\x00\x00\x00\x00\x00\x00\x00\xf0?'
p3104
tp3105
bsg58
g59
sg41
(dp3106
sbsg1941
I00
sg1942
g1943
sg1944
Nsg1945
g1946
sg1947
g1948
sg1949
g2035
sbsg1620
Nsg1621
g1622
sg1966
S'round'
p3107
sg1579
I01
sg1968
I0
sg1630
Nsg1605
Nsg1565
Nsg1596
Nsg1639
Nsg1981
Nsg1608
I00
sg1609
(dp3108
sg1611
I00
sg1612
Nsg1983
Nsg1986
F0.5
sg1987
g1749
sg1988
Nsg1658
Nsg1641
Nsg1989
g1990
sg1642
I01
sg1991
g1749
sg1645
Nsg1992
I2
sg1648
I00
sg1649
g1780
sg2001
(I0
tp3109
sg1653
I0
sg2003
g2004
sg1604
Nsg2005
I5
sg1654
I01
sg1656
Nsg2006
S'round'
p3110
sg2008
I01
sg60
g182
sg2009
I01
sg2047
I2
sg1657
Nsg1729
g1730
sg2010
g2048
sg1638
F1.0
sbsg60
Nsg2049
g1916
sg2050
S'xtick'
p3111
sg1657
Nsg1729
g1730
sg2052
g0
(g1922
g2
Ntp3112
Rp3113
(dp3114
g1569
g59
sg1594
I01
sg1926
S'projecting'
p3115
sg1589
g1592
sg1928
S'butt'
p3116
sg1930
g0
(g1931
g2
Ntp3117
Rp3118
(dp3119
g1930
I2
sg1935
Nsg1936
F1.0
sg60
g0
(g158
g2
Ntp3120
Rp3121
(dp3122
g14
I2
sg82
Nsg70
g26
(g27
(I0
tp3123
g29
tp3124
Rp3125
(I1
(I3
I3
tp3126
g36
I00
S'\x00\x00\x00\x00\x00\x00\xf0?\x00\x00\x00\x00\x00\x00\x00\x00\x00\x00\x00\x00\x00\x00\x00\x00\x00\x00\x00\x00\x00\x00\x00\x00\x00\x00\x00\x00\x00\x00\xf0?\x00\x00\x00\x00\x00\x00\x00\x00\x00\x00\x00\x00\x00\x00\x00\x00\x00\x00\x00\x00\x00\x00\x00\x00\x00\x00\x00\x00\x00\x00\xf0?'
p3127
tp3128
bsg58
g59
sg41
(dp3129
sbsg1941
I00
sg1942
g1943
sg1944
Nsg1945
g1946
sg1947
g1948
sg1949
g2035
sbsg1620
Nsg1621
g1622
sg1966
S'round'
p3130
sg1579
I01
sg1968
I0
sg1630
Nsg1605
Nsg1565
Nsg1596
Nsg1639
Nsg1981
Nsg1608
I00
sg1609
(dp3131
sg1611
I00
sg1612
Nsg1983
Nsg1986
F0.5
sg1987
g1749
sg1988
Nsg1658
Nsg1641
Nsg1989
g1990
sg1642
I01
sg1991
g1749
sg1645
Nsg1992
I2
sg1648
I00
sg1649
g1780
sg2001
(I0
tp3132
sg1653
I0
sg2003
g2004
sg1604
Nsg2005
I5
sg1654
I01
sg1656
Nsg2006
S'round'
p3133
sg2008
I01
sg60
g182
sg2009
I01
sg2047
I2
sg1657
Nsg1729
g1730
sg2010
g2075
sg1638
F1.0
sbsbasS'_minor_tick_kw'
p3134
(dp3135
sS'isDefault_minfmt'
p3136
I01
sbsg1604
NsS'_navigate_mode'
p3137
Nsg1612
NsS'transAxes'
p3138
g102
sS'_connected'
p3139
(dp3140
sS'fmt_ydata'
p3141
NsS'dataLim'
p3142
g0
(g21
g2
Ntp3143
Rp3144
(dp3145
g14
I0
sg25
g26
(g27
(I0
tp3146
g29
tp3147
Rp3148
(I1
(I2
tp3149
g36
I00
S'\x00\x00\x00\x00\x00\x00\xf0?\x00\x00\x00\x00\x00\x00\xf0\x7f'
p3150
tp3151
bsg41
(dp3152
sg43
g26
(g27
(I0
tp3153
g29
tp3154
Rp3155
(I1
(I2
I2
tp3156
g36
I00
S'\x00\x00\x00\x00\x00\x00\xf0\x7f\x00\x00\x00\x00\x00\x00\xf0\x7f\x00\x00\x00\x00\x00\x00\xf0\xff\x00\x00\x00\x00\x00\x00\xf0\xff'
p3157
tp3158
bsg50
g26
(g27
(I0
tp3159
g29
tp3160
Rp3161
(I1
(I2
I2
tp3162
g36
I00
S'\x00\x00\x00\x00\x00\x00\x00\x00\x11\x9d\x12\x93\xc2\xb5:\xc0\x00\x00\x00\x00\x00\x00 @\xc4\xdf\xae\xad\x19[!\xc0'
p3163
tp3164
bsg57
I01
sg58
g59
sbsS'transData'
p3165
g185
sg1641
NsS'_sharey'
p3166
NsS'_sharex'
p3167
NsS'_ymargin'
p3168
I0
sS'_axes_locator'
p3169
NsS'numCols'
p3170
I1
sg1656
Nsg1666
I01
sS'yaxis'
p3171
g0
(cmatplotlib.axis
YAxis
p3172
g2
Ntp3173
Rp3174
(dp3175
g1569
g59
sg1843
(imatplotlib.axis
Ticker
p3176
(dp3177
g1846
g0
(g1847
g2
Ntp3178
Rp3179
(dp3180
g1851
I00
sg1852
I9
sg1853
(lp3181
I1
aI2
aI5
aI10
asg1855
Nsg1856
I00
sg1857
I01
sg1858
g3174
sbsg1859
g0
(g1860
g2
Ntp3182
Rp3183
(dp3184
g1864
g59
sg1865
g26
(g27
(I0
tp3185
g29
tp3186
Rp3187
(I1
(I6
tp3188
g36
I00
S'\x00\x00\x00\x00\x00\x00>\xc0\x00\x00\x00\x00\x00\x009\xc0\x00\x00\x00\x00\x00\x004\xc0\x00\x00\x00\x00\x00\x00.\xc0\x00\x00\x00\x00\x00\x00$\xc0\x00\x00\x00\x00\x00\x00\x14\xc0'
p3189
tp3190
bsg1858
g3174
sbsbsg1872
I00
sg1873
g0
(g1874
g2
Ntp3191
Rp3192
sg1589
g1592
sg1594
I01
sg1877
I00
sg1878
(lp3193
g0
(cmatplotlib.axis
YTick
p3194
g2
Ntp3195
Rp3196
(dp3197
g1569
g59
sg1618
F0.5
sg1589
g1592
sg1884
I01
sg1594
I01
sg1653
I0
sg1620
Nsg1885
I4
sg1886
g1730
sg1887
I01
sg1714
I4
sg1621
g1622
sg1888
g1889
sg1890
g0
(g1585
g2
Ntp3198
Rp3199
(dp3200
g1569
g59
sg20
Nsg1589
g1592
sg1594
I01
sg1702
g0
(g1703
g2
Ntp3201
Rp3202
(dp3203
g1707
(lp3204
g1709
asg1710
Nsg1711
g1712
sg1713
g1712
sg1714
F16.0
sg1716
g1712
sg1717
g1712
sbsg1620
Nsg1621
g1622
sg1718
Nsg1579
I01
sg1604
Nsg77
I0
sg84
I0
sg1605
Nsg1565
Nsg1596
Nsg1608
I00
sg1609
(dp3205
sg1720
Nsg1611
I00
sg1612
Nsg1639
Nsg1658
Nsg1721
Nsg1641
Nsg1645
Nsg1648
I00
sg1722
g1732
sg1724
S'-30.0'
p3206
sg1726
Nsg1630
Nsg1653
I0
sg1727
Nsg1654
I01
sg1656
Nsg1728
F1.2
sg60
g197
sg1657
Nsg1729
g1730
sg1731
g1692
sbsg1579
I01
sg1604
Nsg1900
I00
sg1605
Nsg1565
g7
sg1596
Nsg1901
I01
sg1608
I00
sg1609
(dp3207
sg1903
(I1
I0
tp3208
sg1611
I00
sg1905
F2.01
sg1612
Nsg1906
I01
sg1639
Nsg1658
g1238
sg1907
g3199
sg1908
g0
(g1585
g2
Ntp3209
Rp3210
(dp3211
g1569
g59
sg20
Nsg1589
g1592
sg1594
I01
sg1702
g0
(g1703
g2
Ntp3212
Rp3213
(dp3214
g1707
(lp3215
g1709
asg1710
Nsg1711
g1712
sg1713
g1712
sg1714
g1916
sg1716
g1712
sg1717
g1712
sbsg1620
Nsg1621
g1622
sg1718
Nsg1579
I01
sg1604
Nsg77
I0
sg84
I1
sg1605
Nsg1565
Nsg1596
Nsg1608
I00
sg1609
(dp3216
sg1720
Nsg1611
I00
sg1612
Nsg1639
Nsg1658
Nsg1721
Nsg1641
Nsg1645
Nsg1648
I00
sg1722
g1732
sg1724
S''
p3217
sg1726
Nsg1630
Nsg1653
I0
sg1727
Nsg1654
I01
sg1656
Nsg1728
F1.2
sg60
g246
sg1657
Nsg1729
g1730
sg1731
g1698
sbsg1645
Nsg1919
I0
sg1648
I00
sg1630
Nsg1920
I4
sg1654
I00
sg1921
g0
(g1922
g2
Ntp3218
Rp3219
(dp3220
g1569
g59
sg1594
I01
sg1926
S'projecting'
p3221
sg1589
g1592
sg1928
S'butt'
p3222
sg1930
g0
(g1931
g2
Ntp3223
Rp3224
(dp3225
g1930
g1780
sg1935
Nsg1936
Nsg60
g0
(g78
g2
Ntp3226
Rp3227
(dp3228
g14
I1
sg82
Nsg58
g59
sg41
(dp3229
sbsg1941
I00
sg1942
g1943
sg1944
Nsg1945
g1946
sg1947
g1948
sg1949
g0
(g1950
g2
Ntp3230
Rp3231
(dp3232
g1954
I00
sg1955
Nsg1956
g26
(g27
(I0
tp3233
g29
tp3234
Rp3235
(I1
(I0
I2
tp3236
g36
I00
g59
tp3237
bsg1962
I00
sg1963
F0.1111111111111111
sg1964
I1
sg1965
I00
sbsbsg1620
Nsg1621
g1622
sg1966
S'round'
p3238
sg1579
I01
sg1968
I0
sg77
g26
(g27
(I0
tp3239
g29
tp3240
Rp3241
(I1
(I2
tp3242
g36
I00
S'\x00\x00\x00\x00\x00\x00\x00\x00\x00\x00\x00\x00\x00\x00\x00\x00'
p3243
tp3244
bsg84
g26
(g27
(I0
tp3245
g29
tp3246
Rp3247
(I1
(I2
tp3248
g36
I00
S'\x00\x00\x00\x00\x00\x00\x00\x00\x00\x00\x00\x00\x00\x00\xf0?'
p3249
tp3250
bsg1630
Nsg1605
Nsg1565
Nsg1596
Nsg1639
Nsg1981
Nsg1608
I00
sg1609
(dp3251
sg1983
Nsg1611
I00
sg1984
I00
sg1612
Nsg1985
Nsg1986
F0.5
sg1987
g1749
sg1988
Nsg1658
g950
sg1641
Nsg1989
g1990
sg1642
I01
sg1991
g1749
sg1645
Nsg1992
I0
sg1648
I00
sg1993
g26
(g27
(I0
tp3252
g29
tp3253
Rp3254
(I1
(I2
I2
tp3255
g36
I00
S'\x00\x00\x00\x00\x00\x00\x00\x00\x00\x00\x00\x00\x00\x00\x00\x00\x00\x00\x00\x00\x00\x00\xf0?\x00\x00\x00\x00\x00\x00\x00\x00'
p3256
tp3257
bsg1649
g2000
sg2001
(I0
I1
tp3258
sg1653
I0
sg2003
g2004
sg1604
Nsg2005
I5
sg1654
I01
sg1656
F1.0
sg2006
S'round'
p3259
sg2008
I00
sg60
g192
sg2009
I00
sg1657
Nsg1729
g1730
sg2010
(I0
I0
tp3260
sg1638
F0.5
sg1949
g0
(g1950
g2
Ntp3261
Rp3262
(dp3263
g1954
I00
sg1955
Nsg1956
g3254
sg1962
I00
sg1963
F0.1111111111111111
sg1964
I180
sg1965
I00
sbsbsg1656
Nsg1641
Nsg2015
g0
(g1922
g2
Ntp3264
Rp3265
(dp3266
g1569
g59
sg1594
I01
sg1926
S'projecting'
p3267
sg1589
g1592
sg1928
S'butt'
p3268
sg1930
g0
(g1931
g2
Ntp3269
Rp3270
(dp3271
g1930
I0
sg1935
Nsg1936
F1.0
sg60
g0
(g158
g2
Ntp3272
Rp3273
(dp3274
g14
I2
sg82
Nsg70
g26
(g27
(I0
tp3275
g29
tp3276
Rp3277
(I1
(I3
I3
tp3278
g36
I00
S'\x00\x00\x00\x00\x00\x00\xf0\xbf\x00\x00\x00\x00\x00\x00\x00\x00\x00\x00\x00\x00\x00\x00\x00\x00\x00\x00\x00\x00\x00\x00\x00\x00\x00\x00\x00\x00\x00\x00\xf0?\x00\x00\x00\x00\x00\x00\x00\x00\x00\x00\x00\x00\x00\x00\x00\x00\x00\x00\x00\x00\x00\x00\x00\x00\x00\x00\x00\x00\x00\x00\xf0?'
p3279
tp3280
bsg58
g59
sg41
(dp3281
sbsg1941
I00
sg1942
g1943
sg1944
Nsg1945
g1946
sg1947
g1948
sg1949
g0
(g1950
g2
Ntp3282
Rp3283
(dp3284
g1954
I00
sg1955
Nsg1956
g26
(g27
(I0
tp3285
g29
tp3286
Rp3287
(I1
(I2
I2
tp3288
g36
I00
S'\x00\x00\x00\x00\x00\x00\x00\x00\x00\x00\x00\x00\x00\x00\x00\x00\x00\x00\x00\x00\x00\x00\xf0?\x00\x00\x00\x00\x00\x00\x00\x00'
p3289
tp3290
bsg1962
I00
sg1963
F0.1111111111111111
sg1964
I1
sg1965
I00
sbsbsg1620
Nsg1621
g1622
sg1966
S'round'
p3291
sg1579
I01
sg1968
I0
sg1630
Nsg1605
Nsg1565
Nsg1596
Nsg1639
Nsg1981
Nsg1608
I00
sg1609
(dp3292
sg1611
I00
sg1612
Nsg1983
Nsg1986
F0.5
sg1987
g1749
sg1988
Nsg1658
Nsg1641
Nsg1989
g1990
sg1642
I01
sg1991
g1749
sg1645
Nsg1992
I4
sg1648
I00
sg1649
g1780
sg2001
(I1
tp3293
sg1653
I0
sg2003
g2004
sg1604
Nsg2005
I5
sg1654
I01
sg1656
Nsg2006
S'round'
p3294
sg2008
I01
sg60
g192
sg2009
I01
sg2047
F2.01
sg1657
Nsg1729
g1730
sg2010
(I0
tp3295
sg1638
F1.0
sbsg60
Nsg2049
g1916
sg2050
S'ytick'
p3296
sg1657
Nsg1729
g1730
sg2052
g0
(g1922
g2
Ntp3297
Rp3298
(dp3299
g1569
g59
sg1594
I01
sg1926
S'projecting'
p3300
sg1589
g1592
sg1928
S'butt'
p3301
sg1930
g0
(g1931
g2
Ntp3302
Rp3303
(dp3304
g1930
I1
sg1935
Nsg1936
F1.0
sg60
g0
(g158
g2
Ntp3305
Rp3306
(dp3307
g14
I2
sg82
Nsg70
g26
(g27
(I0
tp3308
g29
tp3309
Rp3310
(I1
(I3
I3
tp3311
g36
I00
S'\x00\x00\x00\x00\x00\x00\xf0?\x00\x00\x00\x00\x00\x00\x00\x00\x00\x00\x00\x00\x00\x00\x00\x00\x00\x00\x00\x00\x00\x00\x00\x00\x00\x00\x00\x00\x00\x00\xf0?\x00\x00\x00\x00\x00\x00\x00\x00\x00\x00\x00\x00\x00\x00\x00\x00\x00\x00\x00\x00\x00\x00\x00\x00\x00\x00\x00\x00\x00\x00\xf0?'
p3312
tp3313
bsg58
g59
sg41
(dp3314
sbsg1941
I00
sg1942
g1943
sg1944
Nsg1945
g1946
sg1947
g1948
sg1949
g3283
sbsg1620
Nsg1621
g1622
sg1966
S'round'
p3315
sg1579
I01
sg1968
I0
sg1630
Nsg1605
Nsg1565
Nsg1596
Nsg1639
Nsg1981
Nsg1608
I00
sg1609
(dp3316
sg1611
I00
sg1612
Nsg1983
Nsg1986
F0.5
sg1987
g1749
sg1988
Nsg1658
Nsg1641
Nsg1989
g1990
sg1642
I01
sg1991
g1749
sg1645
Nsg1992
I4
sg1648
I00
sg1649
g1780
sg2001
(I0
tp3317
sg1653
I0
sg2003
g2004
sg1604
Nsg2005
I5
sg1654
I01
sg1656
Nsg2006
S'round'
p3318
sg2008
I01
sg60
g192
sg2009
I01
sg2047
F2.01
sg1657
Nsg1729
g1730
sg2010
(I0
tp3319
sg1638
F1.0
sbsbag0
(g3194
g2
Ntp3320
Rp3321
(dp3322
g1569
g59
sg1618
F0.5
sg1589
g1592
sg1884
I01
sg1594
I01
sg1653
I0
sg1620
Nsg1885
I4
sg1886
g1730
sg1887
I01
sg1714
I4
sg1621
g1622
sg1888
g1889
sg1890
g0
(g1585
g2
Ntp3323
Rp3324
(dp3325
g1569
g59
sg20
Nsg1589
g1592
sg1594
I01
sg1702
g0
(g1703
g2
Ntp3326
Rp3327
(dp3328
g1707
g3204
sg1710
Nsg1711
g1712
sg1713
g1712
sg1714
F16.0
sg1716
g1712
sg1717
g1712
sbsg1620
Nsg1621
g1622
sg1718
Nsg1579
I01
sg1604
Nsg77
I0
sg84
I0
sg1605
Nsg1565
Nsg1596
Nsg1608
I00
sg1609
(dp3329
sg1720
Nsg1611
I00
sg1612
Nsg1639
Nsg1658
Nsg1721
Nsg1641
Nsg1645
Nsg1648
I00
sg1722
g1732
sg1724
S'-25.0'
p3330
sg1726
Nsg1630
Nsg1653
I0
sg1727
Nsg1654
I01
sg1656
Nsg1728
F1.2
sg60
g197
sg1657
Nsg1729
g1730
sg1731
g1692
sbsg1579
I01
sg1604
Nsg1900
I00
sg1605
Nsg1565
g7
sg1596
Nsg1901
I01
sg1608
I00
sg1609
(dp3331
sg1903
(I1
I0
tp3332
sg1611
I00
sg1905
F2.01
sg1612
Nsg1906
I01
sg1639
Nsg1658
g382
sg1907
g3324
sg1908
g0
(g1585
g2
Ntp3333
Rp3334
(dp3335
g1569
g59
sg20
Nsg1589
g1592
sg1594
I01
sg1702
g0
(g1703
g2
Ntp3336
Rp3337
(dp3338
g1707
g3215
sg1710
Nsg1711
g1712
sg1713
g1712
sg1714
g1916
sg1716
g1712
sg1717
g1712
sbsg1620
Nsg1621
g1622
sg1718
Nsg1579
I01
sg1604
Nsg77
I0
sg84
I1
sg1605
Nsg1565
Nsg1596
Nsg1608
I00
sg1609
(dp3339
sg1720
Nsg1611
I00
sg1612
Nsg1639
Nsg1658
Nsg1721
Nsg1641
Nsg1645
Nsg1648
I00
sg1722
g1732
sg1724
S''
p3340
sg1726
Nsg1630
Nsg1653
I0
sg1727
Nsg1654
I01
sg1656
Nsg1728
F1.2
sg60
g246
sg1657
Nsg1729
g1730
sg1731
g1698
sbsg1645
Nsg1919
I0
sg1648
I00
sg1630
Nsg1920
I4
sg1654
I00
sg1921
g0
(g1922
g2
Ntp3341
Rp3342
(dp3343
g1569
g59
sg1594
I01
sg1926
g3221
sg1589
g1592
sg1928
g3222
sg1930
g0
(g1931
g2
Ntp3344
Rp3345
(dp3346
g1930
g1780
sg1935
Nsg1936
Nsg60
g0
(g78
g2
Ntp3347
Rp3348
(dp3349
g14
I1
sg82
Nsg58
g59
sg41
(dp3350
sbsg1941
I00
sg1942
g1943
sg1944
Nsg1945
g1946
sg1947
g1948
sg1949
g0
(g1950
g2
Ntp3351
Rp3352
(dp3353
g1954
I00
sg1955
Nsg1956
g26
(g27
(I0
tp3354
g29
tp3355
Rp3356
(I1
(I0
I2
tp3357
g36
I00
g59
tp3358
bsg1962
I00
sg1963
F0.1111111111111111
sg1964
I1
sg1965
I00
sbsbsg1620
Nsg1621
g1622
sg1966
g3238
sg1579
I01
sg1968
I0
sg77
g26
(g27
(I0
tp3359
g29
tp3360
Rp3361
(I1
(I2
tp3362
g36
I00
S'\x00\x00\x00\x00\x00\x00\x00\x00\x00\x00\x00\x00\x00\x00\x00\x00'
p3363
tp3364
bsg84
g26
(g27
(I0
tp3365
g29
tp3366
Rp3367
(I1
(I2
tp3368
g36
I00
S'\x00\x00\x00\x00\x00\x00\x00\x00\x00\x00\x00\x00\x00\x00\xf0?'
p3369
tp3370
bsg1630
Nsg1605
Nsg1565
Nsg1596
Nsg1639
Nsg1981
Nsg1608
I00
sg1609
(dp3371
sg1983
Nsg1611
I00
sg1984
I00
sg1612
Nsg1985
Nsg1986
F0.5
sg1987
g1749
sg1988
Nsg1658
g950
sg1641
Nsg1989
g1990
sg1642
I01
sg1991
g1749
sg1645
Nsg1992
I0
sg1648
I00
sg1993
g26
(g27
(I0
tp3372
g29
tp3373
Rp3374
(I1
(I2
I2
tp3375
g36
I00
S'\x00\x00\x00\x00\x00\x00\x00\x00\x00\x00\x00\x00\x00\x00\x00\x00\x00\x00\x00\x00\x00\x00\xf0?\x00\x00\x00\x00\x00\x00\x00\x00'
p3376
tp3377
bsg1649
g2000
sg2001
g3258
sg1653
I0
sg2003
g2004
sg1604
Nsg2005
I5
sg1654
I01
sg1656
F1.0
sg2006
g3259
sg2008
I00
sg60
g192
sg2009
I00
sg1657
Nsg1729
g1730
sg2010
g3260
sg1638
F0.5
sg1949
g0
(g1950
g2
Ntp3378
Rp3379
(dp3380
g1954
I00
sg1955
Nsg1956
g3374
sg1962
I00
sg1963
F0.1111111111111111
sg1964
I180
sg1965
I00
sbsbsg1656
Nsg1641
Nsg2015
g0
(g1922
g2
Ntp3381
Rp3382
(dp3383
g1569
g59
sg1594
I01
sg1926
g3267
sg1589
g1592
sg1928
g3268
sg1930
g0
(g1931
g2
Ntp3384
Rp3385
(dp3386
g1930
I0
sg1935
Nsg1936
F1.0
sg60
g0
(g158
g2
Ntp3387
Rp3388
(dp3389
g14
I2
sg82
Nsg70
g26
(g27
(I0
tp3390
g29
tp3391
Rp3392
(I1
(I3
I3
tp3393
g36
I00
S'\x00\x00\x00\x00\x00\x00\xf0\xbf\x00\x00\x00\x00\x00\x00\x00\x00\x00\x00\x00\x00\x00\x00\x00\x00\x00\x00\x00\x00\x00\x00\x00\x00\x00\x00\x00\x00\x00\x00\xf0?\x00\x00\x00\x00\x00\x00\x00\x00\x00\x00\x00\x00\x00\x00\x00\x00\x00\x00\x00\x00\x00\x00\x00\x00\x00\x00\x00\x00\x00\x00\xf0?'
p3394
tp3395
bsg58
g59
sg41
(dp3396
sbsg1941
I00
sg1942
g1943
sg1944
Nsg1945
g1946
sg1947
g1948
sg1949
g3283
sbsg1620
Nsg1621
g1622
sg1966
g3291
sg1579
I01
sg1968
I0
sg1630
Nsg1605
Nsg1565
Nsg1596
Nsg1639
Nsg1981
Nsg1608
I00
sg1609
(dp3397
sg1611
I00
sg1612
Nsg1983
Nsg1986
F0.5
sg1987
g1749
sg1988
Nsg1658
Nsg1641
Nsg1989
g1990
sg1642
I01
sg1991
g1749
sg1645
Nsg1992
I4
sg1648
I00
sg1649
g1780
sg2001
g3293
sg1653
I0
sg2003
g2004
sg1604
Nsg2005
I5
sg1654
I01
sg1656
Nsg2006
g3294
sg2008
I01
sg60
g192
sg2009
I01
sg2047
F2.01
sg1657
Nsg1729
g1730
sg2010
(I0
tp3398
sg1638
F1.0
sbsg60
Nsg2049
g1916
sg2050
S'ytick'
p3399
sg1657
Nsg1729
g1730
sg2052
g0
(g1922
g2
Ntp3400
Rp3401
(dp3402
g1569
g59
sg1594
I01
sg1926
g3300
sg1589
g1592
sg1928
g3301
sg1930
g0
(g1931
g2
Ntp3403
Rp3404
(dp3405
g1930
I1
sg1935
Nsg1936
F1.0
sg60
g0
(g158
g2
Ntp3406
Rp3407
(dp3408
g14
I2
sg82
Nsg70
g26
(g27
(I0
tp3409
g29
tp3410
Rp3411
(I1
(I3
I3
tp3412
g36
I00
S'\x00\x00\x00\x00\x00\x00\xf0?\x00\x00\x00\x00\x00\x00\x00\x00\x00\x00\x00\x00\x00\x00\x00\x00\x00\x00\x00\x00\x00\x00\x00\x00\x00\x00\x00\x00\x00\x00\xf0?\x00\x00\x00\x00\x00\x00\x00\x00\x00\x00\x00\x00\x00\x00\x00\x00\x00\x00\x00\x00\x00\x00\x00\x00\x00\x00\x00\x00\x00\x00\xf0?'
p3413
tp3414
bsg58
g59
sg41
(dp3415
sbsg1941
I00
sg1942
g1943
sg1944
Nsg1945
g1946
sg1947
g1948
sg1949
g3283
sbsg1620
Nsg1621
g1622
sg1966
g3315
sg1579
I01
sg1968
I0
sg1630
Nsg1605
Nsg1565
Nsg1596
Nsg1639
Nsg1981
Nsg1608
I00
sg1609
(dp3416
sg1611
I00
sg1612
Nsg1983
Nsg1986
F0.5
sg1987
g1749
sg1988
Nsg1658
Nsg1641
Nsg1989
g1990
sg1642
I01
sg1991
g1749
sg1645
Nsg1992
I4
sg1648
I00
sg1649
g1780
sg2001
g3317
sg1653
I0
sg2003
g2004
sg1604
Nsg2005
I5
sg1654
I01
sg1656
Nsg2006
g3318
sg2008
I01
sg60
g192
sg2009
I01
sg2047
F2.01
sg1657
Nsg1729
g1730
sg2010
(I0
tp3417
sg1638
F1.0
sbsbag0
(g3194
g2
Ntp3418
Rp3419
(dp3420
g1569
g59
sg1618
F0.5
sg1589
g1592
sg1884
I01
sg1594
I01
sg1653
I0
sg1620
Nsg1885
I4
sg1886
g1730
sg1887
I01
sg1714
I4
sg1621
g1622
sg1888
g1889
sg1890
g0
(g1585
g2
Ntp3421
Rp3422
(dp3423
g1569
g59
sg20
Nsg1589
g1592
sg1594
I01
sg1702
g0
(g1703
g2
Ntp3424
Rp3425
(dp3426
g1707
g3204
sg1710
Nsg1711
g1712
sg1713
g1712
sg1714
F16.0
sg1716
g1712
sg1717
g1712
sbsg1620
Nsg1621
g1622
sg1718
Nsg1579
I01
sg1604
Nsg77
I0
sg84
I0
sg1605
Nsg1565
Nsg1596
Nsg1608
I00
sg1609
(dp3427
sg1720
Nsg1611
I00
sg1612
Nsg1639
Nsg1658
Nsg1721
Nsg1641
Nsg1645
Nsg1648
I00
sg1722
g1732
sg1724
S'-20.0'
p3428
sg1726
Nsg1630
Nsg1653
I0
sg1727
Nsg1654
I01
sg1656
Nsg1728
F1.2
sg60
g197
sg1657
Nsg1729
g1730
sg1731
g1692
sbsg1579
I01
sg1604
Nsg1900
I00
sg1605
Nsg1565
g7
sg1596
Nsg1901
I01
sg1608
I00
sg1609
(dp3429
sg1903
(I1
I0
tp3430
sg1611
I00
sg1905
F2.01
sg1612
Nsg1906
I01
sg1639
Nsg1658
Nsg1907
g3422
sg1908
g0
(g1585
g2
Ntp3431
Rp3432
(dp3433
g1569
g59
sg20
Nsg1589
g1592
sg1594
I01
sg1702
g0
(g1703
g2
Ntp3434
Rp3435
(dp3436
g1707
g3215
sg1710
Nsg1711
g1712
sg1713
g1712
sg1714
g1916
sg1716
g1712
sg1717
g1712
sbsg1620
Nsg1621
g1622
sg1718
Nsg1579
I01
sg1604
Nsg77
I0
sg84
I1
sg1605
Nsg1565
Nsg1596
Nsg1608
I00
sg1609
(dp3437
sg1720
Nsg1611
I00
sg1612
Nsg1639
Nsg1658
Nsg1721
Nsg1641
Nsg1645
Nsg1648
I00
sg1722
g1732
sg1724
S''
p3438
sg1726
Nsg1630
Nsg1653
I0
sg1727
Nsg1654
I01
sg1656
Nsg1728
F1.2
sg60
g246
sg1657
Nsg1729
g1730
sg1731
g1698
sbsg1645
Nsg1919
I0
sg1648
I00
sg1630
Nsg1920
I4
sg1654
I00
sg1921
g0
(g1922
g2
Ntp3439
Rp3440
(dp3441
g1569
g59
sg1594
I01
sg1926
g3221
sg1589
g1592
sg1928
g3222
sg1930
g0
(g1931
g2
Ntp3442
Rp3443
(dp3444
g1930
g1780
sg1935
Nsg1936
Nsg60
g0
(g78
g2
Ntp3445
Rp3446
(dp3447
g14
I1
sg82
Nsg58
g59
sg41
(dp3448
sbsg1941
I00
sg1942
g1943
sg1944
Nsg1945
g1946
sg1947
g1948
sg1949
g0
(g1950
g2
Ntp3449
Rp3450
(dp3451
g1954
I00
sg1955
Nsg1956
g26
(g27
(I0
tp3452
g29
tp3453
Rp3454
(I1
(I0
I2
tp3455
g36
I00
g59
tp3456
bsg1962
I00
sg1963
F0.1111111111111111
sg1964
I1
sg1965
I00
sbsbsg1620
Nsg1621
g1622
sg1966
g3238
sg1579
I01
sg1968
I0
sg77
g26
(g27
(I0
tp3457
g29
tp3458
Rp3459
(I1
(I2
tp3460
g36
I00
S'\x00\x00\x00\x00\x00\x00\x00\x00\x00\x00\x00\x00\x00\x00\x00\x00'
p3461
tp3462
bsg84
g26
(g27
(I0
tp3463
g29
tp3464
Rp3465
(I1
(I2
tp3466
g36
I00
S'\x00\x00\x00\x00\x00\x00\x00\x00\x00\x00\x00\x00\x00\x00\xf0?'
p3467
tp3468
bsg1630
Nsg1605
Nsg1565
Nsg1596
Nsg1639
Nsg1981
Nsg1608
I00
sg1609
(dp3469
sg1983
Nsg1611
I00
sg1984
I00
sg1612
Nsg1985
Nsg1986
F0.5
sg1987
g1749
sg1988
Nsg1658
g950
sg1641
Nsg1989
g1990
sg1642
I01
sg1991
g1749
sg1645
Nsg1992
I0
sg1648
I00
sg1993
g26
(g27
(I0
tp3470
g29
tp3471
Rp3472
(I1
(I2
I2
tp3473
g36
I00
S'\x00\x00\x00\x00\x00\x00\x00\x00\x00\x00\x00\x00\x00\x00\x00\x00\x00\x00\x00\x00\x00\x00\xf0?\x00\x00\x00\x00\x00\x00\x00\x00'
p3474
tp3475
bsg1649
g2000
sg2001
g3258
sg1653
I0
sg2003
g2004
sg1604
Nsg2005
I5
sg1654
I01
sg1656
F1.0
sg2006
g3259
sg2008
I00
sg60
g192
sg2009
I00
sg1657
Nsg1729
g1730
sg2010
g3260
sg1638
F0.5
sg1949
g0
(g1950
g2
Ntp3476
Rp3477
(dp3478
g1954
I00
sg1955
Nsg1956
g3472
sg1962
I00
sg1963
F0.1111111111111111
sg1964
I180
sg1965
I00
sbsbsg1656
Nsg1641
Nsg2015
g0
(g1922
g2
Ntp3479
Rp3480
(dp3481
g1569
g59
sg1594
I01
sg1926
g3267
sg1589
g1592
sg1928
g3268
sg1930
g0
(g1931
g2
Ntp3482
Rp3483
(dp3484
g1930
I0
sg1935
Nsg1936
F1.0
sg60
g0
(g158
g2
Ntp3485
Rp3486
(dp3487
g14
I2
sg82
Nsg70
g26
(g27
(I0
tp3488
g29
tp3489
Rp3490
(I1
(I3
I3
tp3491
g36
I00
S'\x00\x00\x00\x00\x00\x00\xf0\xbf\x00\x00\x00\x00\x00\x00\x00\x00\x00\x00\x00\x00\x00\x00\x00\x00\x00\x00\x00\x00\x00\x00\x00\x00\x00\x00\x00\x00\x00\x00\xf0?\x00\x00\x00\x00\x00\x00\x00\x00\x00\x00\x00\x00\x00\x00\x00\x00\x00\x00\x00\x00\x00\x00\x00\x00\x00\x00\x00\x00\x00\x00\xf0?'
p3492
tp3493
bsg58
g59
sg41
(dp3494
sbsg1941
I00
sg1942
g1943
sg1944
Nsg1945
g1946
sg1947
g1948
sg1949
g3283
sbsg1620
Nsg1621
g1622
sg1966
g3291
sg1579
I01
sg1968
I0
sg1630
Nsg1605
Nsg1565
Nsg1596
Nsg1639
Nsg1981
Nsg1608
I00
sg1609
(dp3495
sg1611
I00
sg1612
Nsg1983
Nsg1986
F0.5
sg1987
g1749
sg1988
Nsg1658
Nsg1641
Nsg1989
g1990
sg1642
I01
sg1991
g1749
sg1645
Nsg1992
I4
sg1648
I00
sg1649
g1780
sg2001
g3293
sg1653
I0
sg2003
g2004
sg1604
Nsg2005
I5
sg1654
I01
sg1656
Nsg2006
g3294
sg2008
I01
sg60
g192
sg2009
I01
sg2047
F2.01
sg1657
Nsg1729
g1730
sg2010
(I0
tp3496
sg1638
F1.0
sbsg60
Nsg2049
g1916
sg2050
S'ytick'
p3497
sg1657
Nsg1729
g1730
sg2052
g0
(g1922
g2
Ntp3498
Rp3499
(dp3500
g1569
g59
sg1594
I01
sg1926
g3300
sg1589
g1592
sg1928
g3301
sg1930
g0
(g1931
g2
Ntp3501
Rp3502
(dp3503
g1930
I1
sg1935
Nsg1936
F1.0
sg60
g0
(g158
g2
Ntp3504
Rp3505
(dp3506
g14
I2
sg82
Nsg70
g26
(g27
(I0
tp3507
g29
tp3508
Rp3509
(I1
(I3
I3
tp3510
g36
I00
S'\x00\x00\x00\x00\x00\x00\xf0?\x00\x00\x00\x00\x00\x00\x00\x00\x00\x00\x00\x00\x00\x00\x00\x00\x00\x00\x00\x00\x00\x00\x00\x00\x00\x00\x00\x00\x00\x00\xf0?\x00\x00\x00\x00\x00\x00\x00\x00\x00\x00\x00\x00\x00\x00\x00\x00\x00\x00\x00\x00\x00\x00\x00\x00\x00\x00\x00\x00\x00\x00\xf0?'
p3511
tp3512
bsg58
g59
sg41
(dp3513
sbsg1941
I00
sg1942
g1943
sg1944
Nsg1945
g1946
sg1947
g1948
sg1949
g3283
sbsg1620
Nsg1621
g1622
sg1966
g3315
sg1579
I01
sg1968
I0
sg1630
Nsg1605
Nsg1565
Nsg1596
Nsg1639
Nsg1981
Nsg1608
I00
sg1609
(dp3514
sg1611
I00
sg1612
Nsg1983
Nsg1986
F0.5
sg1987
g1749
sg1988
Nsg1658
Nsg1641
Nsg1989
g1990
sg1642
I01
sg1991
g1749
sg1645
Nsg1992
I4
sg1648
I00
sg1649
g1780
sg2001
g3317
sg1653
I0
sg2003
g2004
sg1604
Nsg2005
I5
sg1654
I01
sg1656
Nsg2006
g3318
sg2008
I01
sg60
g192
sg2009
I01
sg2047
F2.01
sg1657
Nsg1729
g1730
sg2010
(I0
tp3515
sg1638
F1.0
sbsbag0
(g3194
g2
Ntp3516
Rp3517
(dp3518
g1569
g59
sg1618
F0.5
sg1589
g1592
sg1884
I01
sg1594
I01
sg1653
I0
sg1620
Nsg1885
I4
sg1886
g1730
sg1887
I01
sg1714
I4
sg1621
g1622
sg1888
g1889
sg1890
g0
(g1585
g2
Ntp3519
Rp3520
(dp3521
g1569
g59
sg20
Nsg1589
g1592
sg1594
I01
sg1702
g0
(g1703
g2
Ntp3522
Rp3523
(dp3524
g1707
g3204
sg1710
Nsg1711
g1712
sg1713
g1712
sg1714
F16.0
sg1716
g1712
sg1717
g1712
sbsg1620
Nsg1621
g1622
sg1718
Nsg1579
I01
sg1604
Nsg77
I0
sg84
I0
sg1605
Nsg1565
Nsg1596
Nsg1608
I00
sg1609
(dp3525
sg1720
Nsg1611
I00
sg1612
Nsg1639
Nsg1658
Nsg1721
Nsg1641
Nsg1645
Nsg1648
I00
sg1722
g1732
sg1724
S'-15.0'
p3526
sg1726
Nsg1630
Nsg1653
I0
sg1727
Nsg1654
I01
sg1656
Nsg1728
F1.2
sg60
g197
sg1657
Nsg1729
g1730
sg1731
g1692
sbsg1579
I01
sg1604
Nsg1900
I00
sg1605
Nsg1565
g7
sg1596
Nsg1901
I01
sg1608
I00
sg1609
(dp3527
sg1903
(I1
I0
tp3528
sg1611
I00
sg1905
F2.01
sg1612
Nsg1906
I01
sg1639
Nsg1658
Nsg1907
g3520
sg1908
g0
(g1585
g2
Ntp3529
Rp3530
(dp3531
g1569
g59
sg20
Nsg1589
g1592
sg1594
I01
sg1702
g0
(g1703
g2
Ntp3532
Rp3533
(dp3534
g1707
g3215
sg1710
Nsg1711
g1712
sg1713
g1712
sg1714
g1916
sg1716
g1712
sg1717
g1712
sbsg1620
Nsg1621
g1622
sg1718
Nsg1579
I01
sg1604
Nsg77
I0
sg84
I1
sg1605
Nsg1565
Nsg1596
Nsg1608
I00
sg1609
(dp3535
sg1720
Nsg1611
I00
sg1612
Nsg1639
Nsg1658
Nsg1721
Nsg1641
Nsg1645
Nsg1648
I00
sg1722
g1732
sg1724
S''
p3536
sg1726
Nsg1630
Nsg1653
I0
sg1727
Nsg1654
I01
sg1656
Nsg1728
F1.2
sg60
g246
sg1657
Nsg1729
g1730
sg1731
g1698
sbsg1645
Nsg1919
I0
sg1648
I00
sg1630
Nsg1920
I4
sg1654
I00
sg1921
g0
(g1922
g2
Ntp3537
Rp3538
(dp3539
g1569
g59
sg1594
I01
sg1926
g3221
sg1589
g1592
sg1928
g3222
sg1930
g0
(g1931
g2
Ntp3540
Rp3541
(dp3542
g1930
g1780
sg1935
Nsg1936
Nsg60
g0
(g78
g2
Ntp3543
Rp3544
(dp3545
g14
I1
sg82
Nsg58
g59
sg41
(dp3546
sbsg1941
I00
sg1942
g1943
sg1944
Nsg1945
g1946
sg1947
g1948
sg1949
g0
(g1950
g2
Ntp3547
Rp3548
(dp3549
g1954
I00
sg1955
Nsg1956
g26
(g27
(I0
tp3550
g29
tp3551
Rp3552
(I1
(I0
I2
tp3553
g36
I00
g59
tp3554
bsg1962
I00
sg1963
F0.1111111111111111
sg1964
I1
sg1965
I00
sbsbsg1620
Nsg1621
g1622
sg1966
g3238
sg1579
I01
sg1968
I0
sg77
g26
(g27
(I0
tp3555
g29
tp3556
Rp3557
(I1
(I2
tp3558
g36
I00
S'\x00\x00\x00\x00\x00\x00\x00\x00\x00\x00\x00\x00\x00\x00\x00\x00'
p3559
tp3560
bsg84
g26
(g27
(I0
tp3561
g29
tp3562
Rp3563
(I1
(I2
tp3564
g36
I00
S'\x00\x00\x00\x00\x00\x00\x00\x00\x00\x00\x00\x00\x00\x00\xf0?'
p3565
tp3566
bsg1630
Nsg1605
Nsg1565
Nsg1596
Nsg1639
Nsg1981
Nsg1608
I00
sg1609
(dp3567
sg1983
Nsg1611
I00
sg1984
I00
sg1612
Nsg1985
Nsg1986
F0.5
sg1987
g1749
sg1988
Nsg1658
g950
sg1641
Nsg1989
g1990
sg1642
I01
sg1991
g1749
sg1645
Nsg1992
I0
sg1648
I00
sg1993
g26
(g27
(I0
tp3568
g29
tp3569
Rp3570
(I1
(I2
I2
tp3571
g36
I00
S'\x00\x00\x00\x00\x00\x00\x00\x00\x00\x00\x00\x00\x00\x00\x00\x00\x00\x00\x00\x00\x00\x00\xf0?\x00\x00\x00\x00\x00\x00\x00\x00'
p3572
tp3573
bsg1649
g2000
sg2001
g3258
sg1653
I0
sg2003
g2004
sg1604
Nsg2005
I5
sg1654
I01
sg1656
F1.0
sg2006
g3259
sg2008
I00
sg60
g192
sg2009
I00
sg1657
Nsg1729
g1730
sg2010
g3260
sg1638
F0.5
sg1949
g0
(g1950
g2
Ntp3574
Rp3575
(dp3576
g1954
I00
sg1955
Nsg1956
g3570
sg1962
I00
sg1963
F0.1111111111111111
sg1964
I180
sg1965
I00
sbsbsg1656
Nsg1641
Nsg2015
g0
(g1922
g2
Ntp3577
Rp3578
(dp3579
g1569
g59
sg1594
I01
sg1926
g3267
sg1589
g1592
sg1928
g3268
sg1930
g0
(g1931
g2
Ntp3580
Rp3581
(dp3582
g1930
I0
sg1935
Nsg1936
F1.0
sg60
g0
(g158
g2
Ntp3583
Rp3584
(dp3585
g14
I2
sg82
Nsg70
g26
(g27
(I0
tp3586
g29
tp3587
Rp3588
(I1
(I3
I3
tp3589
g36
I00
S'\x00\x00\x00\x00\x00\x00\xf0\xbf\x00\x00\x00\x00\x00\x00\x00\x00\x00\x00\x00\x00\x00\x00\x00\x00\x00\x00\x00\x00\x00\x00\x00\x00\x00\x00\x00\x00\x00\x00\xf0?\x00\x00\x00\x00\x00\x00\x00\x00\x00\x00\x00\x00\x00\x00\x00\x00\x00\x00\x00\x00\x00\x00\x00\x00\x00\x00\x00\x00\x00\x00\xf0?'
p3590
tp3591
bsg58
g59
sg41
(dp3592
sbsg1941
I00
sg1942
g1943
sg1944
Nsg1945
g1946
sg1947
g1948
sg1949
g3283
sbsg1620
Nsg1621
g1622
sg1966
g3291
sg1579
I01
sg1968
I0
sg1630
Nsg1605
Nsg1565
Nsg1596
Nsg1639
Nsg1981
Nsg1608
I00
sg1609
(dp3593
sg1611
I00
sg1612
Nsg1983
Nsg1986
F0.5
sg1987
g1749
sg1988
Nsg1658
Nsg1641
Nsg1989
g1990
sg1642
I01
sg1991
g1749
sg1645
Nsg1992
I4
sg1648
I00
sg1649
g1780
sg2001
g3293
sg1653
I0
sg2003
g2004
sg1604
Nsg2005
I5
sg1654
I01
sg1656
Nsg2006
g3294
sg2008
I01
sg60
g192
sg2009
I01
sg2047
F2.01
sg1657
Nsg1729
g1730
sg2010
(I0
tp3594
sg1638
F1.0
sbsg60
Nsg2049
g1916
sg2050
S'ytick'
p3595
sg1657
Nsg1729
g1730
sg2052
g0
(g1922
g2
Ntp3596
Rp3597
(dp3598
g1569
g59
sg1594
I01
sg1926
g3300
sg1589
g1592
sg1928
g3301
sg1930
g0
(g1931
g2
Ntp3599
Rp3600
(dp3601
g1930
I1
sg1935
Nsg1936
F1.0
sg60
g0
(g158
g2
Ntp3602
Rp3603
(dp3604
g14
I2
sg82
Nsg70
g26
(g27
(I0
tp3605
g29
tp3606
Rp3607
(I1
(I3
I3
tp3608
g36
I00
S'\x00\x00\x00\x00\x00\x00\xf0?\x00\x00\x00\x00\x00\x00\x00\x00\x00\x00\x00\x00\x00\x00\x00\x00\x00\x00\x00\x00\x00\x00\x00\x00\x00\x00\x00\x00\x00\x00\xf0?\x00\x00\x00\x00\x00\x00\x00\x00\x00\x00\x00\x00\x00\x00\x00\x00\x00\x00\x00\x00\x00\x00\x00\x00\x00\x00\x00\x00\x00\x00\xf0?'
p3609
tp3610
bsg58
g59
sg41
(dp3611
sbsg1941
I00
sg1942
g1943
sg1944
Nsg1945
g1946
sg1947
g1948
sg1949
g3283
sbsg1620
Nsg1621
g1622
sg1966
g3315
sg1579
I01
sg1968
I0
sg1630
Nsg1605
Nsg1565
Nsg1596
Nsg1639
Nsg1981
Nsg1608
I00
sg1609
(dp3612
sg1611
I00
sg1612
Nsg1983
Nsg1986
F0.5
sg1987
g1749
sg1988
Nsg1658
Nsg1641
Nsg1989
g1990
sg1642
I01
sg1991
g1749
sg1645
Nsg1992
I4
sg1648
I00
sg1649
g1780
sg2001
g3317
sg1653
I0
sg2003
g2004
sg1604
Nsg2005
I5
sg1654
I01
sg1656
Nsg2006
g3318
sg2008
I01
sg60
g192
sg2009
I01
sg2047
F2.01
sg1657
Nsg1729
g1730
sg2010
(I0
tp3613
sg1638
F1.0
sbsbag0
(g3194
g2
Ntp3614
Rp3615
(dp3616
g1569
g59
sg1618
F0.5
sg1589
g1592
sg1884
I01
sg1594
I01
sg1653
I0
sg1620
Nsg1885
I4
sg1886
g1730
sg1887
I01
sg1714
I4
sg1621
g1622
sg1888
g1889
sg1890
g0
(g1585
g2
Ntp3617
Rp3618
(dp3619
g1569
g59
sg20
Nsg1589
g1592
sg1594
I01
sg1702
g0
(g1703
g2
Ntp3620
Rp3621
(dp3622
g1707
g3204
sg1710
Nsg1711
g1712
sg1713
g1712
sg1714
F16.0
sg1716
g1712
sg1717
g1712
sbsg1620
Nsg1621
g1622
sg1718
Nsg1579
I01
sg1604
Nsg77
I0
sg84
I0
sg1605
Nsg1565
Nsg1596
Nsg1608
I00
sg1609
(dp3623
sg1720
Nsg1611
I00
sg1612
Nsg1639
Nsg1658
Nsg1721
Nsg1641
Nsg1645
Nsg1648
I00
sg1722
g1732
sg1724
S'-10.0'
p3624
sg1726
Nsg1630
Nsg1653
I0
sg1727
Nsg1654
I01
sg1656
Nsg1728
F1.2
sg60
g197
sg1657
Nsg1729
g1730
sg1731
g1692
sbsg1579
I01
sg1604
Nsg1900
I00
sg1605
Nsg1565
g7
sg1596
Nsg1901
I01
sg1608
I00
sg1609
(dp3625
sg1903
(I1
I0
tp3626
sg1611
I00
sg1905
F2.01
sg1612
Nsg1906
I01
sg1639
Nsg1658
Nsg1907
g3618
sg1908
g0
(g1585
g2
Ntp3627
Rp3628
(dp3629
g1569
g59
sg20
Nsg1589
g1592
sg1594
I01
sg1702
g0
(g1703
g2
Ntp3630
Rp3631
(dp3632
g1707
g3215
sg1710
Nsg1711
g1712
sg1713
g1712
sg1714
g1916
sg1716
g1712
sg1717
g1712
sbsg1620
Nsg1621
g1622
sg1718
Nsg1579
I01
sg1604
Nsg77
I0
sg84
I1
sg1605
Nsg1565
Nsg1596
Nsg1608
I00
sg1609
(dp3633
sg1720
Nsg1611
I00
sg1612
Nsg1639
Nsg1658
Nsg1721
Nsg1641
Nsg1645
Nsg1648
I00
sg1722
g1732
sg1724
S''
p3634
sg1726
Nsg1630
Nsg1653
I0
sg1727
Nsg1654
I01
sg1656
Nsg1728
F1.2
sg60
g246
sg1657
Nsg1729
g1730
sg1731
g1698
sbsg1645
Nsg1919
I0
sg1648
I00
sg1630
Nsg1920
I4
sg1654
I00
sg1921
g0
(g1922
g2
Ntp3635
Rp3636
(dp3637
g1569
g59
sg1594
I01
sg1926
g3221
sg1589
g1592
sg1928
g3222
sg1930
g0
(g1931
g2
Ntp3638
Rp3639
(dp3640
g1930
g1780
sg1935
Nsg1936
Nsg60
g0
(g78
g2
Ntp3641
Rp3642
(dp3643
g14
I1
sg82
Nsg58
g59
sg41
(dp3644
sbsg1941
I00
sg1942
g1943
sg1944
Nsg1945
g1946
sg1947
g1948
sg1949
g0
(g1950
g2
Ntp3645
Rp3646
(dp3647
g1954
I00
sg1955
Nsg1956
g26
(g27
(I0
tp3648
g29
tp3649
Rp3650
(I1
(I0
I2
tp3651
g36
I00
g59
tp3652
bsg1962
I00
sg1963
F0.1111111111111111
sg1964
I1
sg1965
I00
sbsbsg1620
Nsg1621
g1622
sg1966
g3238
sg1579
I01
sg1968
I0
sg77
g26
(g27
(I0
tp3653
g29
tp3654
Rp3655
(I1
(I2
tp3656
g36
I00
S'\x00\x00\x00\x00\x00\x00\x00\x00\x00\x00\x00\x00\x00\x00\x00\x00'
p3657
tp3658
bsg84
g26
(g27
(I0
tp3659
g29
tp3660
Rp3661
(I1
(I2
tp3662
g36
I00
S'\x00\x00\x00\x00\x00\x00\x00\x00\x00\x00\x00\x00\x00\x00\xf0?'
p3663
tp3664
bsg1630
Nsg1605
Nsg1565
Nsg1596
Nsg1639
Nsg1981
Nsg1608
I00
sg1609
(dp3665
sg1983
Nsg1611
I00
sg1984
I00
sg1612
Nsg1985
Nsg1986
F0.5
sg1987
g1749
sg1988
Nsg1658
g950
sg1641
Nsg1989
g1990
sg1642
I01
sg1991
g1749
sg1645
Nsg1992
I0
sg1648
I00
sg1993
g26
(g27
(I0
tp3666
g29
tp3667
Rp3668
(I1
(I2
I2
tp3669
g36
I00
S'\x00\x00\x00\x00\x00\x00\x00\x00\x00\x00\x00\x00\x00\x00\x00\x00\x00\x00\x00\x00\x00\x00\xf0?\x00\x00\x00\x00\x00\x00\x00\x00'
p3670
tp3671
bsg1649
g2000
sg2001
g3258
sg1653
I0
sg2003
g2004
sg1604
Nsg2005
I5
sg1654
I01
sg1656
F1.0
sg2006
g3259
sg2008
I00
sg60
g192
sg2009
I00
sg1657
Nsg1729
g1730
sg2010
g3260
sg1638
F0.5
sg1949
g0
(g1950
g2
Ntp3672
Rp3673
(dp3674
g1954
I00
sg1955
Nsg1956
g3668
sg1962
I00
sg1963
F0.1111111111111111
sg1964
I180
sg1965
I00
sbsbsg1656
Nsg1641
Nsg2015
g0
(g1922
g2
Ntp3675
Rp3676
(dp3677
g1569
g59
sg1594
I01
sg1926
g3267
sg1589
g1592
sg1928
g3268
sg1930
g0
(g1931
g2
Ntp3678
Rp3679
(dp3680
g1930
I0
sg1935
Nsg1936
F1.0
sg60
g0
(g158
g2
Ntp3681
Rp3682
(dp3683
g14
I2
sg82
Nsg70
g26
(g27
(I0
tp3684
g29
tp3685
Rp3686
(I1
(I3
I3
tp3687
g36
I00
S'\x00\x00\x00\x00\x00\x00\xf0\xbf\x00\x00\x00\x00\x00\x00\x00\x00\x00\x00\x00\x00\x00\x00\x00\x00\x00\x00\x00\x00\x00\x00\x00\x00\x00\x00\x00\x00\x00\x00\xf0?\x00\x00\x00\x00\x00\x00\x00\x00\x00\x00\x00\x00\x00\x00\x00\x00\x00\x00\x00\x00\x00\x00\x00\x00\x00\x00\x00\x00\x00\x00\xf0?'
p3688
tp3689
bsg58
g59
sg41
(dp3690
sbsg1941
I00
sg1942
g1943
sg1944
Nsg1945
g1946
sg1947
g1948
sg1949
g3283
sbsg1620
Nsg1621
g1622
sg1966
g3291
sg1579
I01
sg1968
I0
sg1630
Nsg1605
Nsg1565
Nsg1596
Nsg1639
Nsg1981
Nsg1608
I00
sg1609
(dp3691
sg1611
I00
sg1612
Nsg1983
Nsg1986
F0.5
sg1987
g1749
sg1988
Nsg1658
Nsg1641
Nsg1989
g1990
sg1642
I01
sg1991
g1749
sg1645
Nsg1992
I4
sg1648
I00
sg1649
g1780
sg2001
g3293
sg1653
I0
sg2003
g2004
sg1604
Nsg2005
I5
sg1654
I01
sg1656
Nsg2006
g3294
sg2008
I01
sg60
g192
sg2009
I01
sg2047
F2.01
sg1657
Nsg1729
g1730
sg2010
(I0
tp3692
sg1638
F1.0
sbsg60
Nsg2049
g1916
sg2050
S'ytick'
p3693
sg1657
Nsg1729
g1730
sg2052
g0
(g1922
g2
Ntp3694
Rp3695
(dp3696
g1569
g59
sg1594
I01
sg1926
g3300
sg1589
g1592
sg1928
g3301
sg1930
g0
(g1931
g2
Ntp3697
Rp3698
(dp3699
g1930
I1
sg1935
Nsg1936
F1.0
sg60
g0
(g158
g2
Ntp3700
Rp3701
(dp3702
g14
I2
sg82
Nsg70
g26
(g27
(I0
tp3703
g29
tp3704
Rp3705
(I1
(I3
I3
tp3706
g36
I00
S'\x00\x00\x00\x00\x00\x00\xf0?\x00\x00\x00\x00\x00\x00\x00\x00\x00\x00\x00\x00\x00\x00\x00\x00\x00\x00\x00\x00\x00\x00\x00\x00\x00\x00\x00\x00\x00\x00\xf0?\x00\x00\x00\x00\x00\x00\x00\x00\x00\x00\x00\x00\x00\x00\x00\x00\x00\x00\x00\x00\x00\x00\x00\x00\x00\x00\x00\x00\x00\x00\xf0?'
p3707
tp3708
bsg58
g59
sg41
(dp3709
sbsg1941
I00
sg1942
g1943
sg1944
Nsg1945
g1946
sg1947
g1948
sg1949
g3283
sbsg1620
Nsg1621
g1622
sg1966
g3315
sg1579
I01
sg1968
I0
sg1630
Nsg1605
Nsg1565
Nsg1596
Nsg1639
Nsg1981
Nsg1608
I00
sg1609
(dp3710
sg1611
I00
sg1612
Nsg1983
Nsg1986
F0.5
sg1987
g1749
sg1988
Nsg1658
Nsg1641
Nsg1989
g1990
sg1642
I01
sg1991
g1749
sg1645
Nsg1992
I4
sg1648
I00
sg1649
g1780
sg2001
g3317
sg1653
I0
sg2003
g2004
sg1604
Nsg2005
I5
sg1654
I01
sg1656
Nsg2006
g3318
sg2008
I01
sg60
g192
sg2009
I01
sg2047
F2.01
sg1657
Nsg1729
g1730
sg2010
(I0
tp3711
sg1638
F1.0
sbsbag0
(g3194
g2
Ntp3712
Rp3713
(dp3714
g1569
g59
sg1618
F0.5
sg1589
g1592
sg1884
I01
sg1594
I01
sg1653
I0
sg1620
Nsg1885
I4
sg1886
g1730
sg1887
I01
sg1714
I4
sg1621
g1622
sg1888
g1889
sg1890
g0
(g1585
g2
Ntp3715
Rp3716
(dp3717
g1569
g59
sg20
Nsg1589
g1592
sg1594
I01
sg1702
g0
(g1703
g2
Ntp3718
Rp3719
(dp3720
g1707
g3204
sg1710
Nsg1711
g1712
sg1713
g1712
sg1714
F16.0
sg1716
g1712
sg1717
g1712
sbsg1620
Nsg1621
g1622
sg1718
Nsg1579
I01
sg1604
Nsg77
I0
sg84
I0
sg1605
Nsg1565
Nsg1596
Nsg1608
I00
sg1609
(dp3721
sg1720
Nsg1611
I00
sg1612
Nsg1639
Nsg1658
Nsg1721
Nsg1641
Nsg1645
Nsg1648
I00
sg1722
g1732
sg1724
S'-5.0'
p3722
sg1726
Nsg1630
Nsg1653
I0
sg1727
Nsg1654
I01
sg1656
Nsg1728
F1.2
sg60
g197
sg1657
Nsg1729
g1730
sg1731
g1692
sbsg1579
I01
sg1604
Nsg1900
I00
sg1605
Nsg1565
g7
sg1596
Nsg1901
I01
sg1608
I00
sg1609
(dp3723
sg1903
(I1
I0
tp3724
sg1611
I00
sg1905
F2.01
sg1612
Nsg1906
I01
sg1639
Nsg1658
Nsg1907
g3716
sg1908
g0
(g1585
g2
Ntp3725
Rp3726
(dp3727
g1569
g59
sg20
Nsg1589
g1592
sg1594
I01
sg1702
g0
(g1703
g2
Ntp3728
Rp3729
(dp3730
g1707
g3215
sg1710
Nsg1711
g1712
sg1713
g1712
sg1714
g1916
sg1716
g1712
sg1717
g1712
sbsg1620
Nsg1621
g1622
sg1718
Nsg1579
I01
sg1604
Nsg77
I0
sg84
I1
sg1605
Nsg1565
Nsg1596
Nsg1608
I00
sg1609
(dp3731
sg1720
Nsg1611
I00
sg1612
Nsg1639
Nsg1658
Nsg1721
Nsg1641
Nsg1645
Nsg1648
I00
sg1722
g1732
sg1724
S''
p3732
sg1726
Nsg1630
Nsg1653
I0
sg1727
Nsg1654
I01
sg1656
Nsg1728
F1.2
sg60
g246
sg1657
Nsg1729
g1730
sg1731
g1698
sbsg1645
Nsg1919
I0
sg1648
I00
sg1630
Nsg1920
I4
sg1654
I00
sg1921
g0
(g1922
g2
Ntp3733
Rp3734
(dp3735
g1569
g59
sg1594
I01
sg1926
g3221
sg1589
g1592
sg1928
g3222
sg1930
g0
(g1931
g2
Ntp3736
Rp3737
(dp3738
g1930
g1780
sg1935
Nsg1936
Nsg60
g0
(g78
g2
Ntp3739
Rp3740
(dp3741
g14
I1
sg82
Nsg58
g59
sg41
(dp3742
sbsg1941
I00
sg1942
g1943
sg1944
Nsg1945
g1946
sg1947
g1948
sg1949
g0
(g1950
g2
Ntp3743
Rp3744
(dp3745
g1954
I00
sg1955
Nsg1956
g26
(g27
(I0
tp3746
g29
tp3747
Rp3748
(I1
(I0
I2
tp3749
g36
I00
g59
tp3750
bsg1962
I00
sg1963
F0.1111111111111111
sg1964
I1
sg1965
I00
sbsbsg1620
Nsg1621
g1622
sg1966
g3238
sg1579
I01
sg1968
I0
sg77
g26
(g27
(I0
tp3751
g29
tp3752
Rp3753
(I1
(I2
tp3754
g36
I00
S'\x00\x00\x00\x00\x00\x00\x00\x00\x00\x00\x00\x00\x00\x00\x00\x00'
p3755
tp3756
bsg84
g26
(g27
(I0
tp3757
g29
tp3758
Rp3759
(I1
(I2
tp3760
g36
I00
S'\x00\x00\x00\x00\x00\x00\x00\x00\x00\x00\x00\x00\x00\x00\xf0?'
p3761
tp3762
bsg1630
Nsg1605
Nsg1565
Nsg1596
Nsg1639
Nsg1981
Nsg1608
I00
sg1609
(dp3763
sg1983
Nsg1611
I00
sg1984
I00
sg1612
Nsg1985
Nsg1986
F0.5
sg1987
g1749
sg1988
Nsg1658
g950
sg1641
Nsg1989
g1990
sg1642
I01
sg1991
g1749
sg1645
Nsg1992
I0
sg1648
I00
sg1993
g26
(g27
(I0
tp3764
g29
tp3765
Rp3766
(I1
(I2
I2
tp3767
g36
I00
S'\x00\x00\x00\x00\x00\x00\x00\x00\x00\x00\x00\x00\x00\x00\x00\x00\x00\x00\x00\x00\x00\x00\xf0?\x00\x00\x00\x00\x00\x00\x00\x00'
p3768
tp3769
bsg1649
g2000
sg2001
g3258
sg1653
I0
sg2003
g2004
sg1604
Nsg2005
I5
sg1654
I01
sg1656
F1.0
sg2006
g3259
sg2008
I00
sg60
g192
sg2009
I00
sg1657
Nsg1729
g1730
sg2010
g3260
sg1638
F0.5
sg1949
g0
(g1950
g2
Ntp3770
Rp3771
(dp3772
g1954
I00
sg1955
Nsg1956
g3766
sg1962
I00
sg1963
F0.1111111111111111
sg1964
I180
sg1965
I00
sbsbsg1656
Nsg1641
Nsg2015
g0
(g1922
g2
Ntp3773
Rp3774
(dp3775
g1569
g59
sg1594
I01
sg1926
g3267
sg1589
g1592
sg1928
g3268
sg1930
g0
(g1931
g2
Ntp3776
Rp3777
(dp3778
g1930
I0
sg1935
Nsg1936
F1.0
sg60
g0
(g158
g2
Ntp3779
Rp3780
(dp3781
g14
I2
sg82
Nsg70
g26
(g27
(I0
tp3782
g29
tp3783
Rp3784
(I1
(I3
I3
tp3785
g36
I00
S'\x00\x00\x00\x00\x00\x00\xf0\xbf\x00\x00\x00\x00\x00\x00\x00\x00\x00\x00\x00\x00\x00\x00\x00\x00\x00\x00\x00\x00\x00\x00\x00\x00\x00\x00\x00\x00\x00\x00\xf0?\x00\x00\x00\x00\x00\x00\x00\x00\x00\x00\x00\x00\x00\x00\x00\x00\x00\x00\x00\x00\x00\x00\x00\x00\x00\x00\x00\x00\x00\x00\xf0?'
p3786
tp3787
bsg58
g59
sg41
(dp3788
sbsg1941
I00
sg1942
g1943
sg1944
Nsg1945
g1946
sg1947
g1948
sg1949
g3283
sbsg1620
Nsg1621
g1622
sg1966
g3291
sg1579
I01
sg1968
I0
sg1630
Nsg1605
Nsg1565
Nsg1596
Nsg1639
Nsg1981
Nsg1608
I00
sg1609
(dp3789
sg1611
I00
sg1612
Nsg1983
Nsg1986
F0.5
sg1987
g1749
sg1988
Nsg1658
Nsg1641
Nsg1989
g1990
sg1642
I01
sg1991
g1749
sg1645
Nsg1992
I4
sg1648
I00
sg1649
g1780
sg2001
g3293
sg1653
I0
sg2003
g2004
sg1604
Nsg2005
I5
sg1654
I01
sg1656
Nsg2006
g3294
sg2008
I01
sg60
g192
sg2009
I01
sg2047
F2.01
sg1657
Nsg1729
g1730
sg2010
(I0
tp3790
sg1638
F1.0
sbsg60
Nsg2049
g1916
sg2050
S'ytick'
p3791
sg1657
Nsg1729
g1730
sg2052
g0
(g1922
g2
Ntp3792
Rp3793
(dp3794
g1569
g59
sg1594
I01
sg1926
g3300
sg1589
g1592
sg1928
g3301
sg1930
g0
(g1931
g2
Ntp3795
Rp3796
(dp3797
g1930
I1
sg1935
Nsg1936
F1.0
sg60
g0
(g158
g2
Ntp3798
Rp3799
(dp3800
g14
I2
sg82
Nsg70
g26
(g27
(I0
tp3801
g29
tp3802
Rp3803
(I1
(I3
I3
tp3804
g36
I00
S'\x00\x00\x00\x00\x00\x00\xf0?\x00\x00\x00\x00\x00\x00\x00\x00\x00\x00\x00\x00\x00\x00\x00\x00\x00\x00\x00\x00\x00\x00\x00\x00\x00\x00\x00\x00\x00\x00\xf0?\x00\x00\x00\x00\x00\x00\x00\x00\x00\x00\x00\x00\x00\x00\x00\x00\x00\x00\x00\x00\x00\x00\x00\x00\x00\x00\x00\x00\x00\x00\xf0?'
p3805
tp3806
bsg58
g59
sg41
(dp3807
sbsg1941
I00
sg1942
g1943
sg1944
Nsg1945
g1946
sg1947
g1948
sg1949
g3283
sbsg1620
Nsg1621
g1622
sg1966
g3315
sg1579
I01
sg1968
I0
sg1630
Nsg1605
Nsg1565
Nsg1596
Nsg1639
Nsg1981
Nsg1608
I00
sg1609
(dp3808
sg1611
I00
sg1612
Nsg1983
Nsg1986
F0.5
sg1987
g1749
sg1988
Nsg1658
Nsg1641
Nsg1989
g1990
sg1642
I01
sg1991
g1749
sg1645
Nsg1992
I4
sg1648
I00
sg1649
g1780
sg2001
g3317
sg1653
I0
sg2003
g2004
sg1604
Nsg2005
I5
sg1654
I01
sg1656
Nsg2006
g3318
sg2008
I01
sg60
g192
sg2009
I01
sg2047
F2.01
sg1657
Nsg1729
g1730
sg2010
(I0
tp3809
sg1638
F1.0
sbsbasg1620
Nsg2860
I00
sg1621
g1622
sg1579
I01
sg1604
Nsg2861
g0
(g1585
g2
Ntp3810
Rp3811
(dp3812
g1569
g59
sg20
Nsg1589
g1592
sg1594
I01
sg1702
g0
(g1703
g2
Ntp3813
Rp3814
(dp3815
g1707
(lp3816
g1709
asg1710
Nsg1711
g1712
sg1713
g1712
sg1714
g1916
sg1716
g1712
sg1717
g1712
sbsg1620
Nsg1621
g1622
sg1718
Nsg1579
I01
sg1604
Nsg77
F0.5
sg84
I0
sg1605
Nsg1565
Nsg1596
Nsg1608
I00
sg1609
(dp3817
sg1720
Nsg1611
I00
sg1612
Nsg1639
Nsg1658
Nsg1721
Nsg1641
Nsg1645
Nsg1648
I00
sg1722
g1723
sg1724
S''
p3818
sg1726
Nsg1630
Nsg1653
I0
sg1727
Nsg1654
I01
sg1656
Nsg1728
F1.2
sg60
g1404
sg1657
Nsg1729
g1730
sg1731
g1698
sbsg1605
Nsg1565
g7
sg1596
Nsg1890
g0
(g1585
g2
Ntp3819
Rp3820
(dp3821
g1569
g59
sg20
Nsg1589
g1592
sg1594
I01
sg1702
g0
(g1703
g2
Ntp3822
Rp3823
(dp3824
g1707
(lp3825
g1709
asg1710
Nsg1711
g1712
sg1713
g1712
sg1714
F20.0
sg1716
g1712
sg1717
g1712
sbsg1620
Nsg1621
g1622
sg1718
Nsg1579
I01
sg1604
Nsg77
F0.5
sg84
I0
sg1605
Nsg1565
Nsg1596
Nsg1608
I00
sg1609
(dp3826
sg1720
Nsg1611
I00
sg1612
Nsg1639
Nsg1658
Nsg1721
S'anchor'
p3827
sg1641
Nsg1645
Nsg1648
I00
sg1722
g1693
sg1724
S'MAP objective (33) value '
p3828
sg1726
Nsg1630
Nsg1653
I0
sg1727
S'vertical'
p3829
sg1654
I01
sg1656
Nsg1728
F1.2
sg60
g828
sg1657
Nsg1729
g1730
sg1731
g1732
sbsg2880
I00
sg1608
I00
sg1609
(dp3830
sg2882
Nsg1611
I00
sg2883
(imatplotlib.axis
Ticker
p3831
(dp3832
g1846
g0
(g2886
g2
Ntp3833
Rp3834
(dp3835
g1858
g3174
sbsg1859
g0
(g2890
g2
Ntp3836
Rp3837
(dp3838
g1858
g3174
sbsbsg1612
Nsg2894
(dp3839
g1887
I01
ssg2896
I01
sg1639
Nsg1641
Nsg2897
I01
sg2898
I1
sg2899
I5
sg2900
I01
sg1662
(imatplotlib.cbook
CallbackRegistry
p3840
(dp3841
bsg1645
Nsg1648
I00
sg2903
I01
sg1630
Nsg1653
I0
sg2904
I6
sg2905
Nsg1654
I00
sg1656
Nsg2906
g1698
sg60
Nsg2907
g1698
sg1657
Nsg1658
g880
sg2005
I15
sg2908
(lp3842
g0
(g3194
g2
Ntp3843
Rp3844
(dp3845
g1569
g59
sg1618
F0.5
sg1589
g1592
sg1884
I01
sg1594
I01
sg1653
I0
sg1620
Nsg1885
I4
sg1886
g1730
sg1887
I00
sg1714
I2
sg1621
g1622
sg1888
g1889
sg1890
g0
(g1585
g2
Ntp3846
Rp3847
(dp3848
g1569
g59
sg20
Nsg1589
g1592
sg1594
I01
sg1702
g0
(g1703
g2
Ntp3849
Rp3850
(dp3851
g1707
(lp3852
g1709
asg1710
Nsg1711
g1712
sg1713
g1712
sg1714
g1916
sg1716
g1712
sg1717
g1712
sbsg1620
Nsg1621
g1622
sg1718
Nsg1579
I01
sg1604
Nsg77
I0
sg84
I0
sg1605
Nsg1565
Nsg1596
Nsg1608
I00
sg1609
(dp3853
sg1720
Nsg1611
I00
sg1612
Nsg1639
Nsg1658
Nsg1721
Nsg1641
Nsg1645
Nsg1648
I00
sg1722
g1732
sg1724
S''
p3854
sg1726
Nsg1630
Nsg1653
I0
sg1727
Nsg1654
I01
sg1656
Nsg1728
F1.2
sg60
g210
sg1657
Nsg1729
g1730
sg1731
g1692
sbsg1579
I01
sg1604
Nsg1900
I00
sg1605
Nsg1565
g7
sg1596
Nsg1901
I01
sg1608
I00
sg1609
(dp3855
sg1903
(I1
I0
tp3856
sg1611
I00
sg1905
I2
sg1612
Nsg1906
I01
sg1639
Nsg1658
g1378
sg1907
g3847
sg1908
g0
(g1585
g2
Ntp3857
Rp3858
(dp3859
g1569
g59
sg20
Nsg1589
g1592
sg1594
I01
sg1702
g0
(g1703
g2
Ntp3860
Rp3861
(dp3862
g1707
(lp3863
g1709
asg1710
Nsg1711
g1712
sg1713
g1712
sg1714
g1916
sg1716
g1712
sg1717
g1712
sbsg1620
Nsg1621
g1622
sg1718
Nsg1579
I01
sg1604
Nsg77
I0
sg84
I1
sg1605
Nsg1565
Nsg1596
Nsg1608
I00
sg1609
(dp3864
sg1720
Nsg1611
I00
sg1612
Nsg1639
Nsg1658
Nsg1721
Nsg1641
Nsg1645
Nsg1648
I00
sg1722
g1732
sg1724
S''
p3865
sg1726
Nsg1630
Nsg1653
I0
sg1727
Nsg1654
I01
sg1656
Nsg1728
F1.2
sg60
g237
sg1657
Nsg1729
g1730
sg1731
g1698
sbsg1645
Nsg1919
I0
sg1648
I00
sg1630
Nsg1920
I4
sg1654
I00
sg1921
g0
(g1922
g2
Ntp3866
Rp3867
(dp3868
g1569
g59
sg1594
I01
sg1926
S'projecting'
p3869
sg1589
g1592
sg1928
S'butt'
p3870
sg1930
g0
(g1931
g2
Ntp3871
Rp3872
(dp3873
g1930
g1780
sg1935
Nsg1936
Nsg60
g0
(g78
g2
Ntp3874
Rp3875
(dp3876
g14
I1
sg82
Nsg58
g59
sg41
(dp3877
sbsg1941
I00
sg1942
g1943
sg1944
Nsg1945
g1946
sg1947
g1948
sg1949
g0
(g1950
g2
Ntp3878
Rp3879
(dp3880
g1954
I00
sg1955
Nsg1956
g26
(g27
(I0
tp3881
g29
tp3882
Rp3883
(I1
(I0
I2
tp3884
g36
I00
g59
tp3885
bsg1962
I00
sg1963
F0.1111111111111111
sg1964
I1
sg1965
I00
sbsbsg1620
Nsg1621
g1622
sg1966
S'round'
p3886
sg1579
I01
sg1968
I0
sg77
g26
(g27
(I0
tp3887
g29
tp3888
Rp3889
(I1
(I2
tp3890
g36
I00
S'\x00\x00\x00\x00\x00\x00\x00\x00\x00\x00\x00\x00\x00\x00\x00\x00'
p3891
tp3892
bsg84
g26
(g27
(I0
tp3893
g29
tp3894
Rp3895
(I1
(I2
tp3896
g36
I00
S'\x00\x00\x00\x00\x00\x00\x00\x00\x00\x00\x00\x00\x00\x00\xf0?'
p3897
tp3898
bsg1630
Nsg1605
Nsg1565
Nsg1596
Nsg1639
Nsg1981
Nsg1608
I00
sg1609
(dp3899
sg1983
Nsg1611
I00
sg1984
I00
sg1612
Nsg1985
Nsg1986
F0.5
sg1987
g1749
sg1988
Nsg1658
g1456
sg1641
Nsg1989
g1990
sg1642
I01
sg1991
g1749
sg1645
Nsg1992
I0
sg1648
I00
sg1993
g26
(g27
(I0
tp3900
g29
tp3901
Rp3902
(I1
(I2
I2
tp3903
g36
I00
S'\x00\x00\x00\x00\x00\x00\x00\x00\x00\x00\x00\x00\x00\x00\x00\x00\x00\x00\x00\x00\x00\x00\xf0?\x00\x00\x00\x00\x00\x00\x00\x00'
p3904
tp3905
bsg1649
g2000
sg2001
g3258
sg1653
I0
sg2003
g2004
sg1604
Nsg2005
I5
sg1654
I01
sg1656
F1.0
sg2006
S'round'
p3906
sg2008
I00
sg60
g192
sg2009
I00
sg1657
Nsg1729
g1730
sg2010
g3260
sg1638
F0.5
sg1949
g0
(g1950
g2
Ntp3907
Rp3908
(dp3909
g1954
I00
sg1955
Nsg1956
g3902
sg1962
I00
sg1963
F0.1111111111111111
sg1964
I180
sg1965
I00
sbsbsg1656
Nsg1641
Nsg2015
g0
(g1922
g2
Ntp3910
Rp3911
(dp3912
g1569
g59
sg1594
I01
sg1926
S'projecting'
p3913
sg1589
g1592
sg1928
S'butt'
p3914
sg1930
g0
(g1931
g2
Ntp3915
Rp3916
(dp3917
g1930
I0
sg1935
Nsg1936
F1.0
sg60
g0
(g158
g2
Ntp3918
Rp3919
(dp3920
g14
I2
sg82
Nsg70
g26
(g27
(I0
tp3921
g29
tp3922
Rp3923
(I1
(I3
I3
tp3924
g36
I00
S'\x00\x00\x00\x00\x00\x00\xf0\xbf\x00\x00\x00\x00\x00\x00\x00\x00\x00\x00\x00\x00\x00\x00\x00\x00\x00\x00\x00\x00\x00\x00\x00\x00\x00\x00\x00\x00\x00\x00\xf0?\x00\x00\x00\x00\x00\x00\x00\x00\x00\x00\x00\x00\x00\x00\x00\x00\x00\x00\x00\x00\x00\x00\x00\x00\x00\x00\x00\x00\x00\x00\xf0?'
p3925
tp3926
bsg58
g59
sg41
(dp3927
sbsg1941
I00
sg1942
g1943
sg1944
Nsg1945
g1946
sg1947
g1948
sg1949
g3283
sbsg1620
Nsg1621
g1622
sg1966
S'round'
p3928
sg1579
I01
sg1968
I0
sg1630
Nsg1605
Nsg1565
Nsg1596
Nsg1639
Nsg1981
Nsg1608
I00
sg1609
(dp3929
sg1611
I00
sg1612
Nsg1983
Nsg1986
F0.5
sg1987
g1749
sg1988
Nsg1658
Nsg1641
Nsg1989
g1990
sg1642
I01
sg1991
g1749
sg1645
Nsg1992
I2
sg1648
I00
sg1649
g1780
sg2001
g3293
sg1653
I0
sg2003
g2004
sg1604
Nsg2005
I5
sg1654
I01
sg1656
Nsg2006
S'round'
p3930
sg2008
I01
sg60
g192
sg2009
I01
sg2047
I2
sg1657
Nsg1729
g1730
sg2010
(I0
tp3931
sg1638
F1.0
sbsg60
Nsg2049
g1916
sg2050
S'ytick'
p3932
sg1657
Nsg1729
g1730
sg2052
g0
(g1922
g2
Ntp3933
Rp3934
(dp3935
g1569
g59
sg1594
I01
sg1926
S'projecting'
p3936
sg1589
g1592
sg1928
S'butt'
p3937
sg1930
g0
(g1931
g2
Ntp3938
Rp3939
(dp3940
g1930
I1
sg1935
Nsg1936
F1.0
sg60
g0
(g158
g2
Ntp3941
Rp3942
(dp3943
g14
I2
sg82
Nsg70
g26
(g27
(I0
tp3944
g29
tp3945
Rp3946
(I1
(I3
I3
tp3947
g36
I00
S'\x00\x00\x00\x00\x00\x00\xf0?\x00\x00\x00\x00\x00\x00\x00\x00\x00\x00\x00\x00\x00\x00\x00\x00\x00\x00\x00\x00\x00\x00\x00\x00\x00\x00\x00\x00\x00\x00\xf0?\x00\x00\x00\x00\x00\x00\x00\x00\x00\x00\x00\x00\x00\x00\x00\x00\x00\x00\x00\x00\x00\x00\x00\x00\x00\x00\x00\x00\x00\x00\xf0?'
p3948
tp3949
bsg58
g59
sg41
(dp3950
sbsg1941
I00
sg1942
g1943
sg1944
Nsg1945
g1946
sg1947
g1948
sg1949
g3283
sbsg1620
Nsg1621
g1622
sg1966
S'round'
p3951
sg1579
I01
sg1968
I0
sg1630
Nsg1605
Nsg1565
Nsg1596
Nsg1639
Nsg1981
Nsg1608
I00
sg1609
(dp3952
sg1611
I00
sg1612
Nsg1983
Nsg1986
F0.5
sg1987
g1749
sg1988
Nsg1658
Nsg1641
Nsg1989
g1990
sg1642
I01
sg1991
g1749
sg1645
Nsg1992
I2
sg1648
I00
sg1649
g1780
sg2001
g3317
sg1653
I0
sg2003
g2004
sg1604
Nsg2005
I5
sg1654
I01
sg1656
Nsg2006
S'round'
p3953
sg2008
I01
sg60
g192
sg2009
I01
sg2047
I2
sg1657
Nsg1729
g1730
sg2010
(I0
tp3954
sg1638
F1.0
sbsbag0
(g3194
g2
Ntp3955
Rp3956
(dp3957
g1569
g59
sg1618
F0.5
sg1589
g1592
sg1884
I01
sg1594
I01
sg1653
I0
sg1620
Nsg1885
I4
sg1886
g1730
sg1887
I00
sg1714
I2
sg1621
g1622
sg1888
g1889
sg1890
g0
(g1585
g2
Ntp3958
Rp3959
(dp3960
g1569
g59
sg20
Nsg1589
g1592
sg1594
I01
sg1702
g0
(g1703
g2
Ntp3961
Rp3962
(dp3963
g1707
(lp3964
g1709
asg1710
Nsg1711
g1712
sg1713
g1712
sg1714
g1916
sg1716
g1712
sg1717
g1712
sbsg1620
Nsg1621
g1622
sg1718
Nsg1579
I01
sg1604
Nsg77
I0
sg84
I0
sg1605
Nsg1565
Nsg1596
Nsg1608
I00
sg1609
(dp3965
sg1720
Nsg1611
I00
sg1612
Nsg1639
Nsg1658
Nsg1721
Nsg1641
Nsg1645
Nsg1648
I00
sg1722
g1732
sg1724
S''
p3966
sg1726
Nsg1630
Nsg1653
I0
sg1727
Nsg1654
I01
sg1656
Nsg1728
F1.2
sg60
g219
sg1657
Nsg1729
g1730
sg1731
g1692
sbsg1579
I01
sg1604
Nsg1900
I00
sg1605
Nsg1565
g7
sg1596
Nsg1901
I01
sg1608
I00
sg1609
(dp3967
sg1903
(I1
I0
tp3968
sg1611
I00
sg1905
I2
sg1612
Nsg1906
I01
sg1639
Nsg1658
g732
sg1907
g3959
sg1908
g0
(g1585
g2
Ntp3969
Rp3970
(dp3971
g1569
g59
sg20
Nsg1589
g1592
sg1594
I01
sg1702
g0
(g1703
g2
Ntp3972
Rp3973
(dp3974
g1707
(lp3975
g1709
asg1710
Nsg1711
g1712
sg1713
g1712
sg1714
g1916
sg1716
g1712
sg1717
g1712
sbsg1620
Nsg1621
g1622
sg1718
Nsg1579
I01
sg1604
Nsg77
I0
sg84
I1
sg1605
Nsg1565
Nsg1596
Nsg1608
I00
sg1609
(dp3976
sg1720
Nsg1611
I00
sg1612
Nsg1639
Nsg1658
Nsg1721
Nsg1641
Nsg1645
Nsg1648
I00
sg1722
g1732
sg1724
S''
p3977
sg1726
Nsg1630
Nsg1653
I0
sg1727
Nsg1654
I01
sg1656
Nsg1728
F1.2
sg60
g228
sg1657
Nsg1729
g1730
sg1731
g1698
sbsg1645
Nsg1919
I0
sg1648
I00
sg1630
Nsg1920
I4
sg1654
I00
sg1921
g0
(g1922
g2
Ntp3978
Rp3979
(dp3980
g1569
g59
sg1594
I01
sg1926
S'projecting'
p3981
sg1589
g1592
sg1928
S'butt'
p3982
sg1930
g0
(g1931
g2
Ntp3983
Rp3984
(dp3985
g1930
g1780
sg1935
Nsg1936
Nsg60
g0
(g78
g2
Ntp3986
Rp3987
(dp3988
g14
I1
sg82
Nsg58
g59
sg41
(dp3989
sbsg1941
I00
sg1942
g1943
sg1944
Nsg1945
g1946
sg1947
g1948
sg1949
g0
(g1950
g2
Ntp3990
Rp3991
(dp3992
g1954
I00
sg1955
Nsg1956
g26
(g27
(I0
tp3993
g29
tp3994
Rp3995
(I1
(I0
I2
tp3996
g36
I00
g59
tp3997
bsg1962
I00
sg1963
F0.1111111111111111
sg1964
I1
sg1965
I00
sbsbsg1620
Nsg1621
g1622
sg1966
S'round'
p3998
sg1579
I01
sg1968
I0
sg77
g26
(g27
(I0
tp3999
g29
tp4000
Rp4001
(I1
(I2
tp4002
g36
I00
S'\x00\x00\x00\x00\x00\x00\x00\x00\x00\x00\x00\x00\x00\x00\x00\x00'
p4003
tp4004
bsg84
g26
(g27
(I0
tp4005
g29
tp4006
Rp4007
(I1
(I2
tp4008
g36
I00
S'\x00\x00\x00\x00\x00\x00\x00\x00\x00\x00\x00\x00\x00\x00\xf0?'
p4009
tp4010
bsg1630
Nsg1605
Nsg1565
Nsg1596
Nsg1639
Nsg1981
Nsg1608
I00
sg1609
(dp4011
sg1983
Nsg1611
I00
sg1984
I00
sg1612
Nsg1985
Nsg1986
F0.5
sg1987
g1749
sg1988
Nsg1658
g802
sg1641
Nsg1989
g1990
sg1642
I01
sg1991
g1749
sg1645
Nsg1992
I0
sg1648
I00
sg1993
g26
(g27
(I0
tp4012
g29
tp4013
Rp4014
(I1
(I2
I2
tp4015
g36
I00
S'\x00\x00\x00\x00\x00\x00\x00\x00\x00\x00\x00\x00\x00\x00\x00\x00\x00\x00\x00\x00\x00\x00\xf0?\x00\x00\x00\x00\x00\x00\x00\x00'
p4016
tp4017
bsg1649
g2000
sg2001
g3258
sg1653
I0
sg2003
g2004
sg1604
Nsg2005
I5
sg1654
I01
sg1656
F1.0
sg2006
S'round'
p4018
sg2008
I00
sg60
g192
sg2009
I00
sg1657
Nsg1729
g1730
sg2010
g3260
sg1638
F0.5
sg1949
g0
(g1950
g2
Ntp4019
Rp4020
(dp4021
g1954
I00
sg1955
Nsg1956
g4014
sg1962
I00
sg1963
F0.1111111111111111
sg1964
I180
sg1965
I00
sbsbsg1656
Nsg1641
Nsg2015
g0
(g1922
g2
Ntp4022
Rp4023
(dp4024
g1569
g59
sg1594
I01
sg1926
S'projecting'
p4025
sg1589
g1592
sg1928
S'butt'
p4026
sg1930
g0
(g1931
g2
Ntp4027
Rp4028
(dp4029
g1930
I0
sg1935
Nsg1936
F1.0
sg60
g0
(g158
g2
Ntp4030
Rp4031
(dp4032
g14
I2
sg82
Nsg70
g26
(g27
(I0
tp4033
g29
tp4034
Rp4035
(I1
(I3
I3
tp4036
g36
I00
S'\x00\x00\x00\x00\x00\x00\xf0\xbf\x00\x00\x00\x00\x00\x00\x00\x00\x00\x00\x00\x00\x00\x00\x00\x00\x00\x00\x00\x00\x00\x00\x00\x00\x00\x00\x00\x00\x00\x00\xf0?\x00\x00\x00\x00\x00\x00\x00\x00\x00\x00\x00\x00\x00\x00\x00\x00\x00\x00\x00\x00\x00\x00\x00\x00\x00\x00\x00\x00\x00\x00\xf0?'
p4037
tp4038
bsg58
g59
sg41
(dp4039
sbsg1941
I00
sg1942
g1943
sg1944
Nsg1945
g1946
sg1947
g1948
sg1949
g3283
sbsg1620
Nsg1621
g1622
sg1966
S'round'
p4040
sg1579
I01
sg1968
I0
sg1630
Nsg1605
Nsg1565
Nsg1596
Nsg1639
Nsg1981
Nsg1608
I00
sg1609
(dp4041
sg1611
I00
sg1612
Nsg1983
Nsg1986
F0.5
sg1987
g1749
sg1988
Nsg1658
Nsg1641
Nsg1989
g1990
sg1642
I01
sg1991
g1749
sg1645
Nsg1992
I2
sg1648
I00
sg1649
g1780
sg2001
g3293
sg1653
I0
sg2003
g2004
sg1604
Nsg2005
I5
sg1654
I01
sg1656
Nsg2006
S'round'
p4042
sg2008
I01
sg60
g192
sg2009
I01
sg2047
I2
sg1657
Nsg1729
g1730
sg2010
(I0
tp4043
sg1638
F1.0
sbsg60
Nsg2049
g1916
sg2050
S'ytick'
p4044
sg1657
Nsg1729
g1730
sg2052
g0
(g1922
g2
Ntp4045
Rp4046
(dp4047
g1569
g59
sg1594
I01
sg1926
S'projecting'
p4048
sg1589
g1592
sg1928
S'butt'
p4049
sg1930
g0
(g1931
g2
Ntp4050
Rp4051
(dp4052
g1930
I1
sg1935
Nsg1936
F1.0
sg60
g0
(g158
g2
Ntp4053
Rp4054
(dp4055
g14
I2
sg82
Nsg70
g26
(g27
(I0
tp4056
g29
tp4057
Rp4058
(I1
(I3
I3
tp4059
g36
I00
S'\x00\x00\x00\x00\x00\x00\xf0?\x00\x00\x00\x00\x00\x00\x00\x00\x00\x00\x00\x00\x00\x00\x00\x00\x00\x00\x00\x00\x00\x00\x00\x00\x00\x00\x00\x00\x00\x00\xf0?\x00\x00\x00\x00\x00\x00\x00\x00\x00\x00\x00\x00\x00\x00\x00\x00\x00\x00\x00\x00\x00\x00\x00\x00\x00\x00\x00\x00\x00\x00\xf0?'
p4060
tp4061
bsg58
g59
sg41
(dp4062
sbsg1941
I00
sg1942
g1943
sg1944
Nsg1945
g1946
sg1947
g1948
sg1949
g3283
sbsg1620
Nsg1621
g1622
sg1966
S'round'
p4063
sg1579
I01
sg1968
I0
sg1630
Nsg1605
Nsg1565
Nsg1596
Nsg1639
Nsg1981
Nsg1608
I00
sg1609
(dp4064
sg1611
I00
sg1612
Nsg1983
Nsg1986
F0.5
sg1987
g1749
sg1988
Nsg1658
Nsg1641
Nsg1989
g1990
sg1642
I01
sg1991
g1749
sg1645
Nsg1992
I2
sg1648
I00
sg1649
g1780
sg2001
g3317
sg1653
I0
sg2003
g2004
sg1604
Nsg2005
I5
sg1654
I01
sg1656
Nsg2006
S'round'
p4065
sg2008
I01
sg60
g192
sg2009
I01
sg2047
I2
sg1657
Nsg1729
g1730
sg2010
(I0
tp4066
sg1638
F1.0
sbsbasg3134
(dp4067
sg3136
I01
sbsS'_axisbelow'
p4068
I00
sg1594
I01
sg1686
(lp4069
g0
(g1922
g2
Ntp4070
Rp4071
(dp4072
g1569
S'_line0'
p4073
sg1594
I01
sg1926
S'projecting'
p4074
sg1589
g1592
sg1928
S'butt'
p4075
sg1930
g0
(g1931
g2
Ntp4076
Rp4077
(dp4078
g1930
S'o'
p4079
sg1935
Nsg1936
F6.0
sg60
g0
(g158
g2
Ntp4080
Rp4081
(dp4082
g14
I2
sg82
Nsg70
g26
(g27
(I0
tp4083
g29
tp4084
Rp4085
(I1
(I3
I3
tp4086
g36
I00
S'\x00\x00\x00\x00\x00\x00\xe0?\x00\x00\x00\x00\x00\x00\x00\x00\x00\x00\x00\x00\x00\x00\x00\x00\x00\x00\x00\x00\x00\x00\x00\x00\x00\x00\x00\x00\x00\x00\xe0?\x00\x00\x00\x00\x00\x00\x00\x00\x00\x00\x00\x00\x00\x00\x00\x00\x00\x00\x00\x00\x00\x00\x00\x00\x00\x00\x00\x00\x00\x00\xf0?'
p4087
tp4088
bsg58
g59
sg41
(dp4089
sbsg1941
I01
sg1942
g1943
sg1944
Nsg1945
g1946
sg1947
g1948
sg1949
g0
(g1950
g2
Ntp4090
Rp4091
(dp4092
g1954
I00
sg1955
g26
(g27
(I0
tp4093
g29
tp4094
Rp4095
(I1
(I26
tp4096
g33
(S'u1'
p4097
I0
I1
tp4098
Rp4099
(I3
S'|'
p4100
NNNI-1
I-1
I0
tp4101
bI00
S'\x01\x04\x04\x04\x04\x04\x04\x04\x04\x04\x04\x04\x04\x04\x04\x04\x04\x04\x04\x04\x04\x04\x04\x04\x04O'
p4102
tp4103
bsg1956
g26
(g27
(I0
tp4104
g29
tp4105
Rp4106
(I1
(I26
I2
tp4107
g36
I00
S'\x00\x00\x00\x00\x00\x00\x00\x00\x00\x00\x00\x00\x00\x00\xf0\xbfr\x0fSl\x16\xf9\xd0?\x00\x00\x00\x00\x00\x00\xf0\xbf\x89\xc9\x15\xf7e\xa0\xe0?\x11\xae\xe8\xd5\xd6\xa0\xec\xbf\xcd;\x7ff\x9e\xa0\xe6?\xcd;\x7ff\x9e\xa0\xe6\xbf\x11\xae\xe8\xd5\xd6\xa0\xec?\x89\xc9\x15\xf7e\xa0\xe0\xbf\x00\x00\x00\x00\x00\x00\xf0?r\x0fSl\x16\xf9\xd0\xbf\x00\x00\x00\x00\x00\x00\xf0?\x00\x00\x00\x00\x00\x00\x00\x00\x00\x00\x00\x00\x00\x00\xf0?r\x0fSl\x16\xf9\xd0?\x11\xae\xe8\xd5\xd6\xa0\xec?\x89\xc9\x15\xf7e\xa0\xe0?\xcd;\x7ff\x9e\xa0\xe6?\xcd;\x7ff\x9e\xa0\xe6?\x89\xc9\x15\xf7e\xa0\xe0?\x11\xae\xe8\xd5\xd6\xa0\xec?r\x0fSl\x16\xf9\xd0?\x00\x00\x00\x00\x00\x00\xf0?\x00\x00\x00\x00\x00\x00\x00\x00\x00\x00\x00\x00\x00\x00\xf0?r\x0fSl\x16\xf9\xd0\xbf\x00\x00\x00\x00\x00\x00\xf0?\x89\xc9\x15\xf7e\xa0\xe0\xbf\x11\xae\xe8\xd5\xd6\xa0\xec?\xcd;\x7ff\x9e\xa0\xe6\xbf\xcd;\x7ff\x9e\xa0\xe6?\x11\xae\xe8\xd5\xd6\xa0\xec\xbf\x89\xc9\x15\xf7e\xa0\xe0?\x00\x00\x00\x00\x00\x00\xf0\xbfr\x0fSl\x16\xf9\xd0?\x00\x00\x00\x00\x00\x00\xf0\xbf\x00\x00\x00\x00\x00\x00\x00\x00\x00\x00\x00\x00\x00\x00\xf0\xbfr\x0fSl\x16\xf9\xd0\xbf\x11\xae\xe8\xd5\xd6\xa0\xec\xbf\x89\xc9\x15\xf7e\xa0\xe0\xbf\xcd;\x7ff\x9e\xa0\xe6\xbf\xcd;\x7ff\x9e\xa0\xe6\xbf\x89\xc9\x15\xf7e\xa0\xe0\xbf\x11\xae\xe8\xd5\xd6\xa0\xec\xbfr\x0fSl\x16\xf9\xd0\xbf\x00\x00\x00\x00\x00\x00\xf0\xbf\x00\x00\x00\x00\x00\x00\x00\x00\x00\x00\x00\x00\x00\x00\xf0\xbf\x00\x00\x00\x00\x00\x00\x00\x00\x00\x00\x00\x00\x00\x00\xf0\xbf'
p4108
tp4109
bsg1962
I01
sg1963
F0.1111111111111111
sg1964
I1
sg1965
I00
sbsbsg1620
Nsg1621
g1622
sg1966
S'round'
p4110
sg1579
I01
sg1968
I0
sg77
g26
(g27
(I0
tp4111
g29
tp4112
Rp4113
(I1
(I9
tp4114
g36
I00
S'\x11\x9d\x12\x93\xc2\xb5:\xc0\xba@E\xce\x1d:4\xc0\x8f\xe7\xb8^\xe8<(\xc0\xab\x14[\xdb%\xe6%\xc0r\x0eNr\xf3k#\xc0\x8eM\x18\x06r?"\xc0:?\x8et\xcdq!\xc0\xc4\xdf\xae\xad\x19[!\xc0\xde\xd2\xc1@O[!\xc0'
p4115
tp4116
bsg84
g26
(g27
(I0
tp4117
g29
tp4118
Rp4119
(I1
(I9
tp4120
g36
I00
S'\x00\x00\x00\x00\x00\x00\x00\x00\x00\x00\x00\x00\x00\x00\xf0?\x00\x00\x00\x00\x00\x00\x00@\x00\x00\x00\x00\x00\x00\x08@\x00\x00\x00\x00\x00\x00\x10@\x00\x00\x00\x00\x00\x00\x14@\x00\x00\x00\x00\x00\x00\x18@\x00\x00\x00\x00\x00\x00\x1c@\x00\x00\x00\x00\x00\x00 @'
p4121
tp4122
bsg1630
Nsg1605
Nsg1565
g7
sg1596
Nsg1639
Nsg1981
Nsg1608
I00
sg1609
(dp4123
sg1983
Nsg2005
I5
sg1611
I00
sg1984
I00
sg1612
Nsg1985
Nsg1986
F0.5
sg1987
g1749
sg1988
Nsg1658
g1534
sg1641
Nsg1989
g1990
sg1642
I01
sg1991
g1749
sg1645
Nsg1992
I10
sg1648
I00
sg1993
g26
(g27
(I0
tp4124
g29
tp4125
Rp4126
(I1
(I9
I2
tp4127
g36
I00
S'\x00\x00\x00\x00\x00\x00\x00\x00\x11\x9d\x12\x93\xc2\xb5:\xc0\x00\x00\x00\x00\x00\x00\xf0?\xba@E\xce\x1d:4\xc0\x00\x00\x00\x00\x00\x00\x00@\x8f\xe7\xb8^\xe8<(\xc0\x00\x00\x00\x00\x00\x00\x08@\xab\x14[\xdb%\xe6%\xc0\x00\x00\x00\x00\x00\x00\x10@r\x0eNr\xf3k#\xc0\x00\x00\x00\x00\x00\x00\x14@\x8eM\x18\x06r?"\xc0\x00\x00\x00\x00\x00\x00\x18@:?\x8et\xcdq!\xc0\x00\x00\x00\x00\x00\x00\x1c@\xc4\xdf\xae\xad\x19[!\xc0\x00\x00\x00\x00\x00\x00 @\xde\xd2\xc1@O[!\xc0'
p4128
tp4129
bsg1649
S'--'
p4130
sg2001
g26
(g27
(I0
tp4131
g29
tp4132
Rp4133
(I1
(I9
tp4134
g33
(S'i8'
p4135
I0
I1
tp4136
Rp4137
(I3
S'<'
p4138
NNNI-1
I-1
I0
tp4139
bI00
S'\x00\x00\x00\x00\x00\x00\x00\x00\x01\x00\x00\x00\x00\x00\x00\x00\x02\x00\x00\x00\x00\x00\x00\x00\x03\x00\x00\x00\x00\x00\x00\x00\x04\x00\x00\x00\x00\x00\x00\x00\x05\x00\x00\x00\x00\x00\x00\x00\x06\x00\x00\x00\x00\x00\x00\x00\x07\x00\x00\x00\x00\x00\x00\x00\x08\x00\x00\x00\x00\x00\x00\x00'
p4140
tp4141
bsg1653
I0
sg2003
g2004
sg1604
Nsg1568
I3
sg1654
I01
sg1656
Nsg2006
S'round'
p4142
sg2008
I00
sg60
g185
sS'_ycid'
p4143
I3
sg2009
I00
sg1657
Nsg1729
g29
sg2010
g26
(g27
(I0
tp4144
g29
tp4145
Rp4146
(I1
(I9
tp4147
g36
I00
S'\x11\x9d\x12\x93\xc2\xb5:\xc0\xba@E\xce\x1d:4\xc0\x8f\xe7\xb8^\xe8<(\xc0\xab\x14[\xdb%\xe6%\xc0r\x0eNr\xf3k#\xc0\x8eM\x18\x06r?"\xc0:?\x8et\xcdq!\xc0\xc4\xdf\xae\xad\x19[!\xc0\xde\xd2\xc1@O[!\xc0'
p4148
tp4149
bsg1638
I2
sg1949
g0
(g1950
g2
Ntp4150
Rp4151
(dp4152
g1954
I00
sg1955
Nsg1956
g4126
sg1962
I00
sg1963
F0.1111111111111111
sg1964
I1
sg1965
I00
sbsbasg4143
I1
sS'spines'
p4153
(dp4154
g1694
g0
(cmatplotlib.spines
Spine
p4155
g2
Ntp4156
Rp4157
(dp4158
g1569
g59
sg2860
I00
sg1619
I01
sg1589
g1592
sS'_bounds'
p4159
Nsg1594
I01
sg1620
Nsg1621
g1622
sg1579
I01
sg1858
g1841
sg1623
g0
(g78
g2
Ntp4160
Rp4161
(dp4162
g14
I1
sg82
Nsg58
g59
sg41
(dp4163
sbsg1628
(F0.0
F0.0
F0.0
F1.0
tp4164
sg1604
Nsg1630
Nsg1605
Nsg1565
g7
sg1596
Nsg1631
Nsg1609
(dp4165
sg1809
(S'outward'
p4166
F0.0
tp4167
sg1611
I00
sg1608
I00
sg1638
F1.0
sg1639
NsS'_patch_type'
p4168
S'line'
p4169
sg1641
Nsg1642
I01
sg1643
g1990
sg1645
Nsg1646
g1777
sg1648
I00
sS'_patch_transform'
p4170
g0
(g78
g2
Ntp4171
Rp4172
(dp4173
g14
I1
sg82
Nsg58
g59
sg41
(dp4174
sbsg1649
g1650
sg1651
g1730
sg1653
I0
sS'_spine_transform'
p4175
(S'identity'
p4176
g0
(g78
g2
Ntp4177
Rp4178
(dp4179
g14
I1
sg82
Nsg58
g59
sg41
(dp4180
sbtp4181
sg1654
I01
sg1656
NsS'spine_type'
p4182
g1694
sg60
g260
sg2047
F2.5
sg1657
Nsg1658
Nsg1612
Nsg1949
g0
(g1950
g2
Ntp4183
Rp4184
(dp4185
g1954
I00
sg1955
Nsg1956
g26
(g27
(I0
tp4186
g29
tp4187
Rp4188
(I1
(I2
I2
tp4189
g36
I00
S'\x00\x00\x00\x00\x00\x00*@\x00\x00\x00\x00\x00\x00\xf0?\x00\x00\x00\x00\x00\x00*@\x00\x00\x00\x00\x00\x00\xf0?'
p4190
tp4191
bsg1962
I00
sg1963
F0.1111111111111111
sg1964
I1
sg1965
I00
sbsbsg1692
g0
(g4155
g2
Ntp4192
Rp4193
(dp4194
g1569
g59
sg2860
I00
sg1619
I01
sg1589
g1592
sg4159
Nsg1594
I01
sg1620
Nsg1621
g1622
sg1579
I01
sg1858
g3174
sg1623
g0
(g78
g2
Ntp4195
Rp4196
(dp4197
g14
I1
sg82
Nsg58
g59
sg41
(dp4198
sbsg1628
(F0.0
F0.0
F0.0
F1.0
tp4199
sg1604
Nsg1630
Nsg1605
Nsg1565
g7
sg1596
Nsg1631
Nsg1609
(dp4200
sg1809
g4167
sg1611
I00
sg1608
I00
sg1638
F1.0
sg1639
Nsg4168
g4169
sg1641
Nsg1642
I01
sg1643
g1990
sg1645
Nsg1646
g1777
sg1648
I00
sg4170
g0
(g78
g2
Ntp4201
Rp4202
(dp4203
g14
I1
sg82
Nsg58
g59
sg41
(dp4204
sbsg1649
g1650
sg1651
g1730
sg1653
I0
sg4175
(g4176
g0
(g78
g2
Ntp4205
Rp4206
(dp4207
g14
I1
sg82
Nsg58
g59
sg41
(dp4208
sbtp4209
sg1654
I01
sg1656
Nsg4182
g1692
sg60
g189
sg2047
F2.5
sg1657
Nsg1658
Nsg1612
Nsg1949
g0
(g1950
g2
Ntp4210
Rp4211
(dp4212
g1954
I00
sg1955
Nsg1956
g26
(g27
(I0
tp4213
g29
tp4214
Rp4215
(I1
(I2
I2
tp4216
g36
I00
S'\x00\x00\x00\x00\x00\x00\xf0?\x00\x00\x00\x00\x00\x00*@\x00\x00\x00\x00\x00\x00\xf0?\x00\x00\x00\x00\x00\x00*@'
p4217
tp4218
bsg1962
I00
sg1963
F0.1111111111111111
sg1964
I1
sg1965
I00
sbsbsg1693
g0
(g4155
g2
Ntp4219
Rp4220
(dp4221
g1569
g59
sg2860
I00
sg1619
I01
sg1589
g1592
sg4159
Nsg1594
I01
sg1620
Nsg1621
g1622
sg1579
I01
sg1858
g1841
sg1623
g0
(g78
g2
Ntp4222
Rp4223
(dp4224
g14
I1
sg82
Nsg58
g59
sg41
(dp4225
sbsg1628
(F0.0
F0.0
F0.0
F1.0
tp4226
sg1604
Nsg1630
Nsg1605
Nsg1565
g7
sg1596
Nsg1631
Nsg1609
(dp4227
sg1809
g4167
sg1611
I00
sg1608
I00
sg1638
F1.0
sg1639
Nsg4168
g4169
sg1641
Nsg1642
I01
sg1643
g1990
sg1645
Nsg1646
g1777
sg1648
I00
sg4170
g0
(g78
g2
Ntp4228
Rp4229
(dp4230
g14
I1
sg82
Nsg58
g59
sg41
(dp4231
sbsg1649
g1650
sg1651
g1730
sg1653
I0
sg4175
(g4176
g0
(g78
g2
Ntp4232
Rp4233
(dp4234
g14
I1
sg82
Nsg58
g59
sg41
(dp4235
sbtp4236
sg1654
I01
sg1656
Nsg4182
g1693
sg60
g256
sg2047
F2.5
sg1657
Nsg1658
Nsg1612
Nsg1949
g0
(g1950
g2
Ntp4237
Rp4238
(dp4239
g1954
I00
sg1955
Nsg1956
g26
(g27
(I0
tp4240
g29
tp4241
Rp4242
(I1
(I2
I2
tp4243
g36
I00
S'\x00\x00\x00\x00\x00\x00*@\x00\x00\x00\x00\x00\x00\x00\x00\x00\x00\x00\x00\x00\x00*@\x00\x00\x00\x00\x00\x00\x00\x00'
p4244
tp4245
bsg1962
I00
sg1963
F0.1111111111111111
sg1964
I1
sg1965
I00
sbsbsg1698
g0
(g4155
g2
Ntp4246
Rp4247
(dp4248
g1569
g59
sg2860
I00
sg1619
I01
sg1589
g1592
sg4159
Nsg1594
I01
sg1620
Nsg1621
g1622
sg1579
I01
sg1858
g3174
sg1623
g0
(g78
g2
Ntp4249
Rp4250
(dp4251
g14
I1
sg82
Nsg58
g59
sg41
(dp4252
sbsg1628
(F0.0
F0.0
F0.0
F1.0
tp4253
sg1604
Nsg1630
Nsg1605
Nsg1565
g7
sg1596
Nsg1631
Nsg1609
(dp4254
sg1809
g4167
sg1611
I00
sg1608
I00
sg1638
F1.0
sg1639
Nsg4168
g4169
sg1641
Nsg1642
I01
sg1643
g1990
sg1645
Nsg1646
g1777
sg1648
I00
sg4170
g0
(g78
g2
Ntp4255
Rp4256
(dp4257
g14
I1
sg82
Nsg58
g59
sg41
(dp4258
sbsg1649
g1650
sg1651
g1730
sg1653
I0
sg4175
(g4176
g0
(g78
g2
Ntp4259
Rp4260
(dp4261
g14
I1
sg82
Nsg58
g59
sg41
(dp4262
sbtp4263
sg1654
I01
sg1656
Nsg4182
g1698
sg60
g206
sg2047
F2.5
sg1657
Nsg1658
Nsg1612
Nsg1949
g0
(g1950
g2
Ntp4264
Rp4265
(dp4266
g1954
I00
sg1955
Nsg1956
g26
(g27
(I0
tp4267
g29
tp4268
Rp4269
(I1
(I2
I2
tp4270
g36
I00
S'\x00\x00\x00\x00\x00\x00\x00\x00\x00\x00\x00\x00\x00\x00*@\x00\x00\x00\x00\x00\x00\x00\x00\x00\x00\x00\x00\x00\x00*@'
p4271
tp4272
bsg1962
I00
sg1963
F0.1111111111111111
sg1964
I1
sg1965
I00
sbsbssg1657
Nsg1639
NsS'_axisbg'
p4273
g1652
sb.